(lp1
(F1621
F350
tp2
a(F1530
F698
tp3
a(F1709
F499
tp4
a(F1525
F660
tp5
a(F1676
F245
tp6
a(F1889
F786
tp7
a(F1755
F1038
tp8
a(F1625
F480
tp9
a(F1793
F560
tp10
a(F1827
F438
tp11
a(F1826
F785
tp12
a(F1752
F573
tp13
a(F1648
F546
tp14
a(F1688
F273
tp15
a.