(lp1
(F129.82914733886719
F380.70938110351562
tp2
a(F131.293212890625
F403.6036376953125
tp3
a(F288.80447387695312
F166.10589599609375
tp4
a(F268.21630859375
F168.7481689453125
tp5
a(F77.523200988769531
F157.32240295410156
tp6
a(F124.93111419677734
F358.2667236328125
tp7
a(F268.12060546875
F168.86253356933594
tp8
a(F125.18886566162109
F358.42266845703125
tp9
a(F142.62982177734375
F405.52529907226562
tp10
a.