(lp1
(F110
F296
tp2
a(F96
F653
tp3
a(F227
F425
tp4
a(F80
F618
tp5
a(F139
F186
tp6
a(F448
F647
tp7
a(F386
F903
tp8
a(F143
F422
tp9
a(F323
F462
tp10
a(F324
F348
tp11
a(F396
F661
tp12
a(F283
F486
tp13
a(F177
F478
tp14
a(F158
F213
tp15
a.