(lp1
(F1596.130615234375
F154.12248229980469
tp2
a(F1714.3092041015625
F563.3363037109375
tp3
a(F1596.0296630859375
F154.29170227050781
tp4
a(F1789.352783203125
F156.85710144042969
tp5
a(F1596.010986328125
F154.35948181152344
tp6
a(F1595.9312744140625
F154.46205139160156
tp7
a(F1725.375732421875
F559.8509521484375
tp8
a(F1493.21337890625
F960.18414306640625
tp9
a(F1595.9014892578125
F154.54447937011719
tp10
a(F1596.05810546875
F154.52519226074219
tp11
a(F1596.099853515625
F154.33311462402344
tp12
a(F1596.0416259765625
F154.23226928710938
tp13
a(F1679.60693359375
F334.172119140625
tp14
a(F1491.09521484375
F959.11517333984375
tp15
a(F1596.0850830078125
F154.32582092285156
tp16
a(F1596.00634765625
F154.32487487792969
tp17
a(F1726.244873046875
F563.99969482421875
tp18
a(F1673.2801513671875
F335.84744262695312
tp19
a(F1746.6663818359375
F565.7099609375
tp20
a(F1596.01513671875
F154.28758239746094
tp21
a(F1596.1422119140625
F154.38313293457031
tp22
a(F1594.8341064453125
F139.97482299804688
tp23
a(F1596.185302734375
F154.35508728027344
tp24
a(F1766.59619140625
F201.5858154296875
tp25
a(F1596.088134765625
F154.28495788574219
tp26
a(F1810.6568603515625
F292.77352905273438
tp27
a(F1665.599609375
F347.50979614257812
tp28
a(F1697.8094482421875
F285.71646118164062
tp29
a(F1663.6552734375
F330.06988525390625
tp30
a(F1596.1982421875
F154.52609252929688
tp31
a(F1789.7003173828125
F156.9261474609375
tp32
a(F1596.1368408203125
F154.32167053222656
tp33
a(F1586.145263671875
F420.72637939453125
tp34
a(F1592.15478515625
F418.50411987304688
tp35
a(F1586.864501953125
F412.6434326171875
tp36
a(F1657.0723876953125
F332.12921142578125
tp37
a(F1596.02490234375
F154.4781494140625
tp38
a(F1585.1212158203125
F420.68048095703125
tp39
a(F1586.0594482421875
F412.74502563476562
tp40
a(F1586.0594482421875
F412.74502563476562
tp41
a(F1596.071044921875
F154.39430236816406
tp42
a(F1588.65283203125
F454.32196044921875
tp43
a(F1590.50439453125
F418.94705200195312
tp44
a(F1596.0760498046875
F154.541748046875
tp45
a(F1582.3955078125
F458.68020629882812
tp46
a(F1596.069091796875
F154.5994873046875
tp47
a(F1596.0048828125
F154.18730163574219
tp48
a(F1587.7955322265625
F419.1302490234375
tp49
a(F1596.029541015625
F154.25653076171875
tp50
a(F1596.0257568359375
F154.20878601074219
tp51
a(F1578.19140625
F444.35491943359375
tp52
a(F1580.6981201171875
F421.07073974609375
tp53
a(F1587.5074462890625
F455.11370849609375
tp54
a(F1596.11767578125
F154.26422119140625
tp55
a(F1587.907470703125
F455.04617309570312
tp56
a(F1582.1749267578125
F459.06130981445312
tp57
a(F1595.14990234375
F139.75291442871094
tp58
a(F1595.998046875
F154.42041015625
tp59
a(F1642.93896484375
F355.95159912109375
tp60
a(F1588.24365234375
F454.72470092773438
tp61
a(F1595.927001953125
F154.68533325195312
tp62
a(F1637.9012451171875
F338.3170166015625
tp63
a(F1596.08447265625
F154.34147644042969
tp64
a(F1596.0548095703125
F154.24287414550781
tp65
a.