(lp1
(F68.714462280273438
F142.18484497070312
tp2
a(F241.17044067382812
F547.1475830078125
tp3
a(F68.693954467773438
F142.15185546875
tp4
a(F263.17620849609375
F148.56500244140625
tp5
a(F68.693267822265625
F142.15878295898438
tp6
a(F68.692337036132812
F142.18803405761719
tp7
a(F252.43061828613281
F542.92333984375
tp8
a(F58.76904296875
F993.2225341796875
tp9
a(F68.665298461914062
F142.1864013671875
tp10
a(F68.64312744140625
F142.19880676269531
tp11
a(F68.63922119140625
F142.19529724121094
tp12
a(F68.632720947265625
F142.19070434570312
tp13
a(F178.22882080078125
F323.77066040039062
tp14
a(F56.114021301269531
F992.51129150390625
tp15
a(F68.629180908203125
F142.14399719238281
tp16
a(F68.629295349121094
F142.09284973144531
tp17
a(F253.19261169433594
F547.12713623046875
tp18
a(F172.0859375
F325.96298217773438
tp19
a(F272.772216796875
F546.45123291015625
tp20
a(F68.654060363769531
F142.21162414550781
tp21
a(F68.666999816894531
F142.23605346679688
tp22
a(F66.754470825195312
F127.35492706298828
tp23
a(F68.689277648925781
F142.19439697265625
tp24
a(F248.66213989257812
F191.64854431152344
tp25
a(F68.69256591796875
F142.20863342285156
tp26
a(F299.50247192382812
F279.18121337890625
tp27
a(F165.91836547851562
F337.9010009765625
tp28
a(F190.51043701171875
F274.59771728515625
tp29
a(F161.16648864746094
F320.01907348632812
tp30
a(F68.692420959472656
F142.2161865234375
tp31
a(F263.19085693359375
F148.566162109375
tp32
a(F68.672088623046875
F142.19833374023438
tp33
a(F91.515701293945312
F416.91156005859375
tp34
a(F97.757553100585938
F414.6553955078125
tp35
a(F91.73724365234375
F409.04144287109375
tp36
a(F155.32420349121094
F322.81668090820312
tp37
a(F68.6385498046875
F142.2113037109375
tp38
a(F90.669486999511719
F417.51181030273438
tp39
a(F90.964218139648438
F409.14321899414062
tp40
a(F90.964218139648438
F409.14321899414062
tp41
a(F68.686622619628906
F142.25843811035156
tp42
a(F99.506080627441406
F451.41744995117188
tp43
a(F95.947494506835938
F415.10247802734375
tp44
a(F68.654205322265625
F142.19363403320312
tp45
a(F94.2684326171875
F456.69131469726562
tp46
a(F68.670265197753906
F142.14961242675781
tp47
a(F68.65557861328125
F142.18623352050781
tp48
a(F93.194839477539062
F415.6143798828125
tp49
a(F68.66168212890625
F142.16316223144531
tp50
a(F68.656806945800781
F142.23745727539062
tp51
a(F87.196319580078125
F442.288330078125
tp52
a(F85.993133544921875
F418.724853515625
tp53
a(F98.680801391601562
F451.9305419921875
tp54
a(F68.666511535644531
F142.21861267089844
tp55
a(F98.996490478515625
F451.82620239257812
tp56
a(F93.890647888183594
F457.34732055664062
tp57
a(F66.611015319824219
F127.28587341308594
tp58
a(F68.647201538085938
F142.28202819824219
tp59
a(F143.99034118652344
F347.62570190429688
tp60
a(F99.34490966796875
F452.10269165039062
tp61
a(F68.666336059570312
F142.17123413085938
tp62
a(F136.78343200683594
F329.86114501953125
tp63
a(F68.661598205566406
F142.25347900390625
tp64
a(F68.69805908203125
F142.16535949707031
tp65
a.