(lp1
(F1621.871337890625
F436.414306640625
tp2
a(F1617.7862548828125
F459.38360595703125
tp3
a(F1835.873046875
F240.11210632324219
tp4
a(F1812.2386474609375
F240.62525939941406
tp5
a(F1625.386962890625
F211.58345031738281
tp6
a(F1623.1568603515625
F413.90341186523438
tp7
a(F1812.303955078125
F240.67913818359375
tp8
a(F1623.3524169921875
F413.9971923828125
tp9
a(F1628.2545166015625
F463.01605224609375
tp10
a.