(lp1
(F129.82914733886719
F380.70938110351562
tp2
a(F131.293212890625
F403.6036376953125
tp3
a(F288.80447387695312
F166.10589599609375
tp4
a(F268.21630859375
F168.7481689453125
tp5
a(F77.523200988769531
F157.32240295410156
tp6
a(F124.93111419677734
F358.2667236328125
tp7
a(F268.12060546875
F168.86253356933594
tp8
a(F125.18886566162109
F358.42266845703125
tp9
a(F142.62982177734375
F405.52529907226562
tp10
a(F267.9476318359375
F168.68952941894531
tp11
a(F125.00533294677734
F358.48919677734375
tp12
a(F125.07418823242188
F358.54364013671875
tp13
a(F125.00418853759766
F358.32858276367188
tp14
a(F142.72196960449219
F405.54745483398438
tp15
a(F125.06965637207031
F358.61593627929688
tp16
a(F125.10923767089844
F358.33087158203125
tp17
a(F142.55990600585938
F405.37222290039062
tp18
a(F288.93145751953125
F166.10940551757812
tp19
a(F142.17619323730469
F405.69686889648438
tp20
a(F142.55880737304688
F405.55282592773438
tp21
a(F131.33609008789062
F403.68475341796875
tp22
a(F188.76576232910156
F33.096466064453125
tp23
a(F142.7496337890625
F405.80142211914062
tp24
a(F142.21897888183594
F406.06338500976562
tp25
a(F296.48959350585938
F168.77949523925781
tp26
a(F124.75083923339844
F358.50753784179688
tp27
a(F124.3353271484375
F358.400634765625
tp28
a(F142.34365844726562
F406.00186157226562
tp29
a(F142.30569458007812
F405.8017578125
tp30
a(F131.39260864257812
F403.59402465820312
tp31
a(F131.46054077148438
F403.70779418945312
tp32
a(F59.901397705078125
F168.44204711914062
tp33
a(F141.90345764160156
F406.08847045898438
tp34
a(F142.31431579589844
F405.96206665039062
tp35
a(F142.42337036132812
F406.17861938476562
tp36
a(F142.68966674804688
F406.38482666015625
tp37
a(F296.36312866210938
F168.94331359863281
tp38
a(F142.38558959960938
F405.72122192382812
tp39
a(F142.53456115722656
F405.96078491210938
tp40
a(F142.64192199707031
F406.0867919921875
tp41
a(F142.40620422363281
F406.42926025390625
tp42
a(F142.50837707519531
F406.26925659179688
tp43
a(F182.35260009765625
F46.10955810546875
tp44
a(F142.83572387695312
F405.56961059570312
tp45
a(F182.37832641601562
F46.106182098388672
tp46
a(F142.54096984863281
F406.022705078125
tp47
a(F142.02967834472656
F405.7979736328125
tp48
a(F142.42582702636719
F405.87811279296875
tp49
a(F124.93376159667969
F358.4373779296875
tp50
a(F142.33729553222656
F405.238525390625
tp51
a(F205.23818969726562
F50.085834503173828
tp52
a(F124.87010955810547
F358.21121215820312
tp53
a(F131.18074035644531
F403.5838623046875
tp54
a(F131.16226196289062
F403.53561401367188
tp55
a(F130.75175476074219
F359.142333984375
tp56
a(F124.79150390625
F358.02468872070312
tp57
a(F142.54832458496094
F405.44992065429688
tp58
a(F124.94955444335938
F358.04296875
tp59
a(F131.37149047851562
F403.58798217773438
tp60
a(F125.21265411376953
F350.6396484375
tp61
a(F126.42165374755859
F366.158935546875
tp62
a(F126.86134338378906
F366.28573608398438
tp63
a(F131.88995361328125
F359.246826171875
tp64
a(F131.77107238769531
F359.4337158203125
tp65
a(F131.81336975097656
F359.1151123046875
tp66
a(F131.81336975097656
F359.1151123046875
tp67
a(F125.99447631835938
F350.65512084960938
tp68
a(F131.88349914550781
F359.15866088867188
tp69
a(F126.38457489013672
F366.70196533203125
tp70
a(F132.05323791503906
F359.25360107421875
tp71
a(F132.05323791503906
F359.25360107421875
tp72
a(F268.20916748046875
F168.8177490234375
tp73
a(F131.85783386230469
F359.22109985351562
tp74
a(F131.85783386230469
F359.22109985351562
tp75
a(F127.03501892089844
F366.79901123046875
tp76
a(F131.92265319824219
F359.22146606445312
tp77
a(F131.71400451660156
F359.26846313476562
tp78
a(F126.85889434814453
F366.55465698242188
tp79
a(F131.32009887695312
F403.57003784179688
tp80
a(F131.67649841308594
F359.38534545898438
tp81
a(F126.594970703125
F366.76571655273438
tp82
a(F131.62348937988281
F359.36587524414062
tp83
a(F131.62348937988281
F359.36587524414062
tp84
a(F126.42399597167969
F366.7825927734375
tp85
a(F142.95976257324219
F405.09979248046875
tp86
a(F131.60896301269531
F359.37890625
tp87
a(F126.31251525878906
F366.62152099609375
tp88
a(F126.36283874511719
F366.53805541992188
tp89
a(F131.35179138183594
F359.16720581054688
tp90
a(F131.36415100097656
F403.56838989257812
tp91
a(F126.25798797607422
F366.64019775390625
tp92
a(F296.4515380859375
F169.02989196777344
tp93
a(F296.4515380859375
F169.02989196777344
tp94
a(F130.96577453613281
F359.31686401367188
tp95
a(F124.94009399414062
F358.15505981445312
tp96
a(F130.80677795410156
F359.36935424804688
tp97
a(F288.86965942382812
F165.88320922851562
tp98
a(F130.78692626953125
F359.20953369140625
tp99
a(F124.82904815673828
F358.45782470703125
tp100
a(F142.20033264160156
F405.98565673828125
tp101
a(F142.33218383789062
F405.62930297851562
tp102
a(F59.661857604980469
F168.20770263671875
tp103
a(F142.59884643554688
F405.87637329101562
tp104
a(F142.42906188964844
F405.88006591796875
tp105
a(F141.95045471191406
F406.21725463867188
tp106
a(F131.21095275878906
F403.57608032226562
tp107
a(F129.181884765625
F380.92129516601562
tp108
a(F142.498291015625
F405.35220336914062
tp109
a(F129.3721923828125
F381.28961181640625
tp110
a(F142.81105041503906
F405.65765380859375
tp111
a(F142.74325561523438
F405.58078002929688
tp112
a(F142.64077758789062
F405.9622802734375
tp113
a(F142.35945129394531
F406.36117553710938
tp114
a(F142.5238037109375
F406.17041015625
tp115
a(F288.96957397460938
F166.08950805664062
tp116
a(F142.66856384277344
F405.98330688476562
tp117
a(F142.71356201171875
F405.923583984375
tp118
a(F142.35462951660156
F405.49868774414062
tp119
a(F142.285400390625
F405.76361083984375
tp120
a(F142.20478820800781
F406.11166381835938
tp121
a(F124.99237823486328
F358.49282836914062
tp122
a(F142.27626037597656
F406.03857421875
tp123
a(F128.07177734375
F362.747314453125
tp124
a(F124.87969970703125
F358.28128051757812
tp125
a(F142.7967529296875
F405.59140014648438
tp126
a(F126.13545227050781
F389.72930908203125
tp127
a(F142.4990234375
F405.68414306640625
tp128
a(F128.00889587402344
F362.44931030273438
tp129
a(F142.29734802246094
F406.20404052734375
tp130
a(F128.00685119628906
F362.51611328125
tp131
a(F77.58636474609375
F157.28726196289062
tp132
a(F77.58636474609375
F157.28726196289062
tp133
a(F124.70458221435547
F358.07244873046875
tp134
a(F142.42141723632812
F405.5567626953125
tp135
a(F125.01252746582031
F358.4327392578125
tp136
a(F124.88525390625
F358.32479858398438
tp137
a(F142.70335388183594
F405.3441162109375
tp138
a(F124.89167785644531
F358.34683227539062
tp139
a(F142.60733032226562
F405.7745361328125
tp140
a(F142.9710693359375
F405.85159301757812
tp141
a(F142.9886474609375
F405.59512329101562
tp142
a(F142.2899169921875
F405.77685546875
tp143
a(F296.46893310546875
F168.74935913085938
tp144
a(F127.72347259521484
F362.89447021484375
tp145
a(F142.16871643066406
F406.11386108398438
tp146
a(F142.51701354980469
F405.70846557617188
tp147
a(F142.51780700683594
F405.85671997070312
tp148
a(F296.61785888671875
F168.92916870117188
tp149
a(F129.12271118164062
F380.84628295898438
tp150
a(F142.34391784667969
F405.65219116210938
tp151
a(F142.45390319824219
F405.55416870117188
tp152
a(F129.06916809082031
F380.9984130859375
tp153
a(F129.06916809082031
F380.9984130859375
tp154
a(F129.07926940917969
F380.83688354492188
tp155
a(F124.64376831054688
F358.38790893554688
tp156
a(F288.8753662109375
F166.12879943847656
tp157
a(F129.10166931152344
F380.8157958984375
tp158
a(F129.10166931152344
F380.8157958984375
tp159
a(F142.94963073730469
F405.57565307617188
tp160
a(F142.52095031738281
F405.35794067382812
tp161
a(F59.086627960205078
F212.66914367675781
tp162
a(F129.09342956542969
F380.78176879882812
tp163
a(F59.14361572265625
F212.64286804199219
tp164
a(F288.79891967773438
F166.03913879394531
tp165
a(F77.156524658203125
F157.1434326171875
tp166
a(F129.20790100097656
F380.94406127929688
tp167
a(F296.35430908203125
F169.19192504882812
tp168
a(F296.22811889648438
F169.27981567382812
tp169
a(F129.05685424804688
F380.929931640625
tp170
a(F124.26222229003906
F358.53369140625
tp171
a(F296.40200805664062
F168.9180908203125
tp172
a(F124.09906005859375
F358.7161865234375
tp173
a(F127.43769836425781
F362.85385131835938
tp174
a(F296.43930053710938
F169.01266479492188
tp175
a(F142.42962646484375
F406.31378173828125
tp176
a(F142.38313293457031
F406.44039916992188
tp177
a(F124.16201782226562
F358.55508422851562
tp178
a(F142.19686889648438
F406.45785522460938
tp179
a(F131.3480224609375
F403.49407958984375
tp180
a(F142.60429382324219
F406.18215942382812
tp181
a(F142.07916259765625
F406.61843872070312
tp182
a(F129.00146484375
F380.8909912109375
tp183
a(F128.9981689453125
F380.969482421875
tp184
a(F124.14019012451172
F358.71292114257812
tp185
a(F124.13338470458984
F358.51596069335938
tp186
a(F128.98634338378906
F380.95770263671875
tp187
a(F129.1097412109375
F380.81842041015625
tp188
a(F124.28618621826172
F358.58920288085938
tp189
a(F124.15335083007812
F358.53512573242188
tp190
a(F142.59562683105469
F405.29156494140625
tp191
a(F210.43707275390625
F214.90438842773438
tp192
a(F210.43707275390625
F214.90438842773438
tp193
a(F129.01368713378906
F380.74322509765625
tp194
a(F124.60089874267578
F358.74880981445312
tp195
a(F128.98271179199219
F380.71511840820312
tp196
a(F123.81756591796875
F350.63815307617188
tp197
a(F77.458480834960938
F157.20050048828125
tp198
a(F124.26265716552734
F367.403564453125
tp199
a(F124.23517608642578
F350.52572631835938
tp200
a(F124.11997222900391
F350.518798828125
tp201
a(F124.25666046142578
F350.62838745117188
tp202
a(F124.16342163085938
F350.56057739257812
tp203
a(F288.90097045898438
F166.14787292480469
tp204
a(F124.13753509521484
F350.806640625
tp205
a(F141.8607177734375
F406.18893432617188
tp206
a(F124.21057891845703
F366.82769775390625
tp207
a(F288.85708618164062
F166.03042602539062
tp208
a(F124.59606170654297
F358.76821899414062
tp209
a(F129.03266906738281
F380.627197265625
tp210
a(F288.93020629882812
F165.98060607910156
tp211
a(F288.95645141601562
F165.94847106933594
tp212
a(F288.907958984375
F166.00733947753906
tp213
a(F268.07122802734375
F168.83407592773438
tp214
a(F124.14993286132812
F358.23818969726562
tp215
a(F124.00939178466797
F357.89651489257812
tp216
a(F128.0517578125
F380.574951171875
tp217
a(F123.42610931396484
F357.55682373046875
tp218
a(F123.45343017578125
F357.55209350585938
tp219
a(F126.75589752197266
F380.06256103515625
tp220
a(F128.49781799316406
F383.872314453125
tp221
a(F120.07980346679688
F358.170654296875
tp222
a(F120.07799530029297
F373.963134765625
tp223
a(F267.75323486328125
F168.5980224609375
tp224
a(F296.20169067382812
F168.98641967773438
tp225
a(F117.52108764648438
F382.05889892578125
tp226
a(F116.69583129882812
F382.0931396484375
tp227
a(F110.96521759033203
F359.97747802734375
tp228
a(F106.6702880859375
F351.41409301757812
tp229
a(F289.06793212890625
F166.1231689453125
tp230
a(F107.16639709472656
F358.5081787109375
tp231
a(F111.77858734130859
F384.68569946289062
tp232
a(F106.58823394775391
F358.21572875976562
tp233
a(F110.22781372070312
F381.48898315429688
tp234
a(F103.66996765136719
F350.92788696289062
tp235
a(F77.531234741210938
F157.21699523925781
tp236
a(F77.200775146484375
F157.28367614746094
tp237
a(F77.193374633789062
F157.22984313964844
tp238
a(F104.53053283691406
F378.64443969726562
tp239
a(F109.59516906738281
F391.84988403320312
tp240
a(F108.53816223144531
F391.7197265625
tp241
a(F1396.157470703125
F204.76217651367188
tp242
a(F106.29410552978516
F392.639892578125
tp243
a(F29.574741363525391
F213.16389465332031
tp244
a(F96.086532592773438
F369.56765747070312
tp245
a(F288.83316040039062
F166.08148193359375
tp246
a(F1003.5111083984375
F215.06842041015625
tp247
a(F94.506080627441406
F376.22763061523438
tp248
a(F94.506080627441406
F376.22763061523438
tp249
a(F90.878944396972656
F376.20816040039062
tp250
a(F89.698165893554688
F376.5340576171875
tp251
a(F89.064430236816406
F376.63461303710938
tp252
a(F82.932853698730469
F380.88812255859375
tp253
a(F74.363525390625
F347.82989501953125
tp254
a(F69.941864013671875
F376.55313110351562
tp255
a(F57.643798828125
F365.60256958007812
tp256
a(F296.335693359375
F169.26603698730469
tp257
a(F288.95626831054688
F166.10882568359375
tp258
a(F268.4090576171875
F168.95262145996094
tp259
a(F267.73876953125
F168.76741027832031
tp260
a(F267.62762451171875
F168.72988891601562
tp261
a(F296.5882568359375
F168.95112609863281
tp262
a(F288.97775268554688
F166.00965881347656
tp263
a(F296.43435668945312
F168.79913330078125
tp264
a(F288.888916015625
F166.04029846191406
tp265
a(F296.25515747070312
F169.05130004882812
tp266
a(F288.93795776367188
F166.07138061523438
tp267
a(F296.32864379882812
F169.1842041015625
tp268
a(F77.165840148925781
F157.00408935546875
tp269
a(F288.75680541992188
F165.98641967773438
tp270
a(F296.41091918945312
F168.8983154296875
tp271
a(F296.29266357421875
F169.22314453125
tp272
a(F195.19355773925781
F218.45503234863281
tp273
a(F77.363021850585938
F157.24900817871094
tp274
a(F195.02833557128906
F218.53071594238281
tp275
a(F200.04322814941406
F220.78886413574219
tp276
a(F1796.4578857421875
F208.93669128417969
tp277
a(F1711.3826904296875
F206.73353576660156
tp278
a(F1711.4521484375
F206.58123779296875
tp279
a(F199.92399597167969
F220.63882446289062
tp280
a(F199.99131774902344
F220.60507202148438
tp281
a(F1711.3409423828125
F206.76856994628906
tp282
a(F199.80091857910156
F220.84632873535156
tp283
a(F1711.35302734375
F206.83448791503906
tp284
a(F296.39987182617188
F169.055419921875
tp285
a(F296.44284057617188
F169.09571838378906
tp286
a(F288.9351806640625
F166.12887573242188
tp287
a(F199.86196899414062
F220.58242797851562
tp288
a(F200.13972473144531
F220.62211608886719
tp289
a(F288.98751831054688
F166.028564453125
tp290
a(F288.81021118164062
F166.0491943359375
tp291
a(F268.41168212890625
F168.9658203125
tp292
a(F288.71664428710938
F165.98634338378906
tp293
a(F268.07916259765625
F168.88517761230469
tp294
a(F200.03230285644531
F220.55856323242188
tp295
a(F268.33514404296875
F168.78578186035156
tp296
a(F186.81338500976562
F218.678466796875
tp297
a(F200.17233276367188
F220.50961303710938
tp298
a(F288.8021240234375
F166.05552673339844
tp299
a(F199.87812805175781
F220.61393737792969
tp300
a(F296.560791015625
F168.98899841308594
tp301
a(F321.89663696289062
F221.96630859375
tp302
a(F288.71014404296875
F165.9312744140625
tp303
a(F288.63699340820312
F166.0235595703125
tp304
a(F199.85443115234375
F220.62675476074219
tp305
a(F268.02706909179688
F168.74310302734375
tp306
a(F182.32931518554688
F46.065456390380859
tp307
a(F313.04693603515625
F219.58744812011719
tp308
a(F152.01242065429688
F223.07470703125
tp309
a(F300.49221801757812
F643.76043701171875
tp310
a(F108.95922088623047
F223.23048400878906
tp311
a(F298.2684326171875
F642.906005859375
tp312
a(F267.9678955078125
F168.74577331542969
tp313
a(F182.13580322265625
F46.124496459960938
tp314
a(F283.56756591796875
F638.40625
tp315
a(F283.17425537109375
F634.2174072265625
tp316
a(F291.38995361328125
F625.3516845703125
tp317
a(F358.71414184570312
F455.54837036132812
tp318
a(F279.92904663085938
F617.0933837890625
tp319
a(F277.04745483398438
F616.18316650390625
tp320
a(F296.60928344726562
F168.63993835449219
tp321
a(F270.0709228515625
F602.8179931640625
tp322
a(F269.147705078125
F601.93212890625
tp323
a(F326.2523193359375
F416.61355590820312
tp324
a(F268.10693359375
F600.9647216796875
tp325
a(F268.37869262695312
F168.80314636230469
tp326
a(F268.11395263671875
F168.82534790039062
tp327
a(F296.48556518554688
F168.9248046875
tp328
a(F262.39413452148438
F593.9951171875
tp329
a(F263.48416137695312
F634.10015869140625
tp330
a(F261.24874877929688
F593.96002197265625
tp331
a(F260.77685546875
F593.2392578125
tp332
a(F270.28350830078125
F614.03253173828125
tp333
a(F260.4549560546875
F592.16015625
tp334
a(F259.41458129882812
F587.36297607421875
tp335
a(F268.103515625
F168.79142761230469
tp336
a(F243.20578002929688
F576.79510498046875
tp337
a(F288.4527587890625
F166.03556823730469
tp338
a(F296.37725830078125
F168.81277465820312
tp339
a(F246.96466064453125
F572.36138916015625
tp340
a(F267.90643310546875
F168.83430480957031
tp341
a(F244.29396057128906
F563.28076171875
tp342
a(F296.56329345703125
F168.96672058105469
tp343
a(F296.33297729492188
F168.99209594726562
tp344
a(F228.115234375
F534.8905029296875
tp345
a(F228.115234375
F534.8905029296875
tp346
a(F77.059188842773438
F157.2203369140625
tp347
a(F268.37289428710938
F168.99697875976562
tp348
a(F268.0328369140625
F168.87779235839844
tp349
a(F268.04257202148438
F168.67767333984375
tp350
a(F182.46437072753906
F45.95697021484375
tp351
a(F267.93209838867188
F168.82218933105469
tp352
a(F267.96389770507812
F168.8865966796875
tp353
a(F288.8433837890625
F166.01229858398438
tp354
a(F77.436576843261719
F157.29254150390625
tp355
a(F1734.90576171875
F209.14088439941406
tp356
a(F268.28939819335938
F168.88029479980469
tp357
a(F77.629058837890625
F157.38992309570312
tp358
a(F267.83071899414062
F168.69020080566406
tp359
a(F288.91290283203125
F166.12129211425781
tp360
a(F289.01763916015625
F166.09309387207031
tp361
a(F389.63510131835938
F382.9654541015625
tp362
a(F296.449951171875
F168.88761901855469
tp363
a(F77.257499694824219
F157.25990295410156
tp364
a(F77.257499694824219
F157.25990295410156
tp365
a(F296.44039916992188
F168.93290710449219
tp366
a(F197.48956298828125
F428.97842407226562
tp367
a(F344.52822875976562
F218.71006774902344
tp368
a(F296.42953491210938
F168.90199279785156
tp369
a(F209.29618835449219
F159.05075073242188
tp370
a(F296.35586547851562
F168.88064575195312
tp371
a(F296.3350830078125
F168.83956909179688
tp372
a(F182.191162109375
F46.134529113769531
tp373
a(F182.41304016113281
F46.017280578613281
tp374
a(F296.21148681640625
F168.81181335449219
tp375
a(F343.90744018554688
F218.34799194335938
tp376
a(F289.07302856445312
F166.04959106445312
tp377
a(F296.368896484375
F169.1083984375
tp378
a(F267.94412231445312
F168.75297546386719
tp379
a(F288.89544677734375
F166.01531982421875
tp380
a(F77.379631042480469
F157.3275146484375
tp381
a(F77.666618347167969
F157.25924682617188
tp382
a(F289.0106201171875
F166.03474426269531
tp383
a(F77.448287963867188
F157.44387817382812
tp384
a(F296.25747680664062
F169.15216064453125
tp385
a(F398.42803955078125
F442.74996948242188
tp386
a(F394.71588134765625
F458.9989013671875
tp387
a(F393.67330932617188
F440.01779174804688
tp388
a(F393.28475952148438
F440.37612915039062
tp389
a(F392.88150024414062
F441.73358154296875
tp390
a(F393.20797729492188
F462.45614624023438
tp391
a(F267.64193725585938
F168.68888854980469
tp392
a(F384.85586547851562
F458.67605590820312
tp393
a(F384.28286743164062
F476.38543701171875
tp394
a(F387.13092041015625
F458.22506713867188
tp395
a(F277.9754638671875
F278.79458618164062
tp396
a(F390.1099853515625
F452.85238647460938
tp397
a(F258.34683227539062
F302.63265991210938
tp398
a(F258.34683227539062
F302.63265991210938
tp399
a(F402.92938232421875
F438.1695556640625
tp400
a(F288.84527587890625
F166.09619140625
tp401
a(F213.83622741699219
F440.1396484375
tp402
a(F324.89883422851562
F291.8216552734375
tp403
a(F749.8404541015625
F415.88134765625
tp404
a(F102.37464904785156
F223.11933898925781
tp405
a(F296.069580078125
F169.00102233886719
tp406
a(F296.42941284179688
F169.11624145507812
tp407
a(F296.40875244140625
F168.92897033691406
tp408
a(F288.874267578125
F165.97828674316406
tp409
a(F388.71615600585938
F426.23703002929688
tp410
a(F288.91314697265625
F166.03518676757812
tp411
a(F267.93069458007812
F168.60400390625
tp412
a(F268.45950317382812
F168.85066223144531
tp413
a(F267.94879150390625
F168.80744934082031
tp414
a(F296.18283081054688
F168.84861755371094
tp415
a(F209.43405151367188
F159.02931213378906
tp416
a(F268.17758178710938
F168.8873291015625
tp417
a(F296.21868896484375
F168.88018798828125
tp418
a(F267.9698486328125
F168.93582153320312
tp419
a(F288.86764526367188
F165.99807739257812
tp420
a(F288.75665283203125
F166.02696228027344
tp421
a(F296.38128662109375
F169.00590515136719
tp422
a(F895.71148681640625
F210.85208129882812
tp423
a(F268.390869140625
F168.84465026855469
tp424
a(F268.30191040039062
F168.77445983886719
tp425
a(F288.79623413085938
F166.03703308105469
tp426
a(F288.75946044921875
F166.03939819335938
tp427
a(F296.431640625
F168.89753723144531
tp428
a(F296.5
F168.77430725097656
tp429
a(F268.25479125976562
F168.9111328125
tp430
a(F205.38812255859375
F223.51499938964844
tp431
a(F296.26605224609375
F169.04023742675781
tp432
a(F267.98114013671875
F168.66389465332031
tp433
a(F289.04547119140625
F166.07098388671875
tp434
a(F296.45504760742188
F168.84817504882812
tp435
a(F296.47061157226562
F168.80168151855469
tp436
a(F268.06411743164062
F168.79391479492188
tp437
a(F296.16851806640625
F168.96240234375
tp438
a(F296.16851806640625
F168.96240234375
tp439
a(F268.12496948242188
F168.86076354980469
tp440
a(F296.46981811523438
F168.72254943847656
tp441
a(F268.24920654296875
F168.93739318847656
tp442
a(F267.9703369140625
F168.77809143066406
tp443
a(F268.1494140625
F168.84593200683594
tp444
a(F267.86593627929688
F168.74960327148438
tp445
a(F267.83914184570312
F168.75704956054688
tp446
a(F289.07064819335938
F166.02964782714844
tp447
a(F296.4376220703125
F168.917236328125
tp448
a(F131.42666625976562
F219.02395629882812
tp449
a(F268.312744140625
F168.94216918945312
tp450
a(F296.59027099609375
F168.91621398925781
tp451
a(F182.3812255859375
F46.035373687744141
tp452
a(F268.1416015625
F168.89877319335938
tp453
a(F288.74795532226562
F165.97872924804688
tp454
a(F77.24169921875
F157.31361389160156
tp455
a(F288.70101928710938
F166.06631469726562
tp456
a(F77.252830505371094
F157.14106750488281
tp457
a(F296.29605102539062
F168.95465087890625
tp458
a(F296.29605102539062
F168.95465087890625
tp459
a(F267.79379272460938
F168.82537841796875
tp460
a(F288.91705322265625
F166.02081298828125
tp461
a(F86.418319702148438
F221.15956115722656
tp462
a(F31.728874206542969
F219.15155029296875
tp463
a(F235.46707153320312
F214.40887451171875
tp464
a(F296.37582397460938
F168.8670654296875
tp465
a(F296.47756958007812
F168.9664306640625
tp466
a(F268.01480102539062
F168.64764404296875
tp467
a(F268.07595825195312
F168.58351135253906
tp468
a(F288.68698120117188
F165.89276123046875
tp469
a(F296.38455200195312
F168.86074829101562
tp470
a(F267.6527099609375
F168.6666259765625
tp471
a(F268.05859375
F168.79777526855469
tp472
a(F296.54244995117188
F168.67890930175781
tp473
a(F268.037109375
F168.74473571777344
tp474
a(F296.32656860351562
F168.69200134277344
tp475
a(F267.88653564453125
F168.81802368164062
tp476
a(F296.39584350585938
F168.94805908203125
tp477
a(F268.31048583984375
F168.87295532226562
tp478
a(F21.904180526733398
F396.822509765625
tp479
a(F22.786081314086914
F373.73455810546875
tp480
a(F296.4605712890625
F169.05043029785156
tp481
a(F296.33389282226562
F169.09571838378906
tp482
a(F296.21267700195312
F169.11302185058594
tp483
a(F30.791744232177734
F387.7315673828125
tp484
a(F296.309814453125
F168.95689392089844
tp485
a(F288.94729614257812
F165.87489318847656
tp486
a(F31.19166374206543
F387.6348876953125
tp487
a(F289.04541015625
F166.05685424804688
tp488
a(F31.17125129699707
F387.60198974609375
tp489
a(F31.17125129699707
F387.60198974609375
tp490
a(F31.152067184448242
F387.56851196289062
tp491
a(F31.152067184448242
F387.56851196289062
tp492
a(F288.97564697265625
F166.01533508300781
tp493
a(F31.146915435791016
F387.57705688476562
tp494
a(F288.84933471679688
F166.02244567871094
tp495
a(F296.4862060546875
F168.93844604492188
tp496
a(F29.161575317382812
F396.60433959960938
tp497
a(F296.34393310546875
F168.86088562011719
tp498
a(F29.047763824462891
F396.5311279296875
tp499
a(F288.87747192382812
F166.02876281738281
tp500
a(F77.434471130371094
F156.59230041503906
tp501
a(F296.34408569335938
F168.93708801269531
tp502
a(F268.25479125976562
F168.92037963867188
tp503
a(F33.662467956542969
F379.61770629882812
tp504
a(F33.733833312988281
F379.53173828125
tp505
a(F30.879339218139648
F393.19192504882812
tp506
a(F296.43167114257812
F169.05023193359375
tp507
a(F30.175302505493164
F387.78823852539062
tp508
a(F267.94961547851562
F168.69122314453125
tp509
a(F33.627895355224609
F379.7054443359375
tp510
a(F30.266872406005859
F387.74945068359375
tp511
a(F27.753707885742188
F374.37600708007812
tp512
a(F27.803489685058594
F374.44329833984375
tp513
a(F77.527481079101562
F157.29698181152344
tp514
a(F77.624504089355469
F157.34193420410156
tp515
a(F28.058450698852539
F374.40740966796875
tp516
a(F288.57876586914062
F165.98001098632812
tp517
a(F296.2293701171875
F168.97578430175781
tp518
a(F296.12237548828125
F169.01083374023438
tp519
a(F28.403255462646484
F396.70419311523438
tp520
a(F296.41796875
F168.90606689453125
tp521
a(F289.0101318359375
F166.06724548339844
tp522
a(F296.42770385742188
F168.90339660644531
tp523
a(F296.68954467773438
F168.66728210449219
tp524
a(F296.51260375976562
F168.75480651855469
tp525
a(F296.36761474609375
F168.77975463867188
tp526
a(F267.89312744140625
F168.84066772460938
tp527
a(F289.11956787109375
F166.18624877929688
tp528
a(F268.02682495117188
F168.76396179199219
tp529
a(F268.09930419921875
F168.86660766601562
tp530
a(F288.92306518554688
F165.83372497558594
tp531
a(F77.075736999511719
F157.15328979492188
tp532
a(F268.33795166015625
F168.79705810546875
tp533
a(F70.857841491699219
F592.849853515625
tp534
a(F99.596733093261719
F603.8946533203125
tp535
a(F296.20046997070312
F168.91502380371094
tp536
a(F267.83493041992188
F168.62942504882812
tp537
a(F267.932373046875
F168.76968383789062
tp538
a(F28.433399200439453
F212.84979248046875
tp539
a(F296.17953491210938
F169.00196838378906
tp540
a(F268.2061767578125
F168.84092712402344
tp541
a(F288.87969970703125
F165.93759155273438
tp542
a(F296.3856201171875
F168.79052734375
tp543
a(F288.6397705078125
F165.78392028808594
tp544
a(F296.46755981445312
F168.80027770996094
tp545
a(F267.947265625
F168.718994140625
tp546
a(F288.82415771484375
F166.05809020996094
tp547
a(F288.90444946289062
F166.09140014648438
tp548
a(F288.83914184570312
F166.07855224609375
tp549
a(F296.34060668945312
F168.78462219238281
tp550
a(F288.99172973632812
F166.113037109375
tp551
a(F288.78082275390625
F166.00192260742188
tp552
a(F203.74525451660156
F225.18728637695312
tp553
a(F105.58759307861328
F225.8499755859375
tp554
a(F1805.363525390625
F208.33172607421875
tp555
a(F77.241615295410156
F157.05497741699219
tp556
a(F77.241615295410156
F157.05497741699219
tp557
a(F288.34439086914062
F165.93325805664062
tp558
a(F77.82861328125
F156.92811584472656
tp559
a(F288.92669677734375
F165.89874267578125
tp560
a(F288.78634643554688
F165.91139221191406
tp561
a(F288.8695068359375
F165.89993286132812
tp562
a(F288.8385009765625
F165.96717834472656
tp563
a(F268.09033203125
F168.79669189453125
tp564
a(F268.05758666992188
F168.74754333496094
tp565
a(F296.40280151367188
F168.71539306640625
tp566
a(F288.83773803710938
F166.03570556640625
tp567
a(F268.3775634765625
F168.79267883300781
tp568
a(F1585.9237060546875
F209.28176879882812
tp569
a(F1585.9371337890625
F209.28521728515625
tp570
a(F327.577880859375
F165.77729797363281
tp571
a(F77.139739990234375
F157.17625427246094
tp572
a(F77.296333312988281
F157.2574462890625
tp573
a(F31.097576141357422
F411.89593505859375
tp574
a(F34.118911743164062
F448.36184692382812
tp575
a(F34.118911743164062
F448.36184692382812
tp576
a(F33.329700469970703
F410.53289794921875
tp577
a(F38.415229797363281
F409.8367919921875
tp578
a(F41.249275207519531
F409.72000122070312
tp579
a(F1795.67626953125
F203.18107604980469
tp580
a(F52.369991302490234
F409.27542114257812
tp581
a(F64.765670776367188
F433.86404418945312
tp582
a(F73.79638671875
F407.11422729492188
tp583
a(F76.137184143066406
F433.01327514648438
tp584
a(F77.987464904785156
F447.39614868164062
tp585
a(F78.05010986328125
F407.31536865234375
tp586
a(F82.419334411621094
F407.30105590820312
tp587
a(F82.991363525390625
F444.0791015625
tp588
a(F90.732551574707031
F406.31747436523438
tp589
a(F98.174827575683594
F405.82730102539062
tp590
a(F98.187606811523438
F431.13836669921875
tp591
a(F119.90882110595703
F403.77139282226562
tp592
a(F124.23086547851562
F443.626953125
tp593
a(F122.98032379150391
F402.74981689453125
tp594
a(F131.03654479980469
F439.737548828125
tp595
a(F131.88111877441406
F444.34054565429688
tp596
a(F134.56694030761719
F427.75857543945312
tp597
a(F145.62821960449219
F441.34017944335938
tp598
a(F288.86514282226562
F165.8602294921875
tp599
a(F139.86408996582031
F402.07363891601562
tp600
a(F140.32621765136719
F419.92071533203125
tp601
a(F288.92446899414062
F165.93409729003906
tp602
a(F144.47087097167969
F427.70870971679688
tp603
a(F146.28004455566406
F427.6595458984375
tp604
a(F154.03062438964844
F443.57516479492188
tp605
a(F151.94282531738281
F428.06625366210938
tp606
a(F154.34327697753906
F443.63668823242188
tp607
a(F149.45326232910156
F391.52166748046875
tp608
a(F156.73951721191406
F399.41693115234375
tp609
a(F165.25068664550781
F425.70111083984375
tp610
a(F177.72149658203125
F420.96328735351562
tp611
a(F168.88531494140625
F425.25628662109375
tp612
a(F161.90023803710938
F399.44992065429688
tp613
a(F169.55293273925781
F440.21701049804688
tp614
a(F169.55293273925781
F440.21701049804688
tp615
a(F170.65800476074219
F401.57644653320312
tp616
a(F170.65800476074219
F401.57644653320312
tp617
a(F296.28213500976562
F168.82440185546875
tp618
a(F171.94746398925781
F401.927734375
tp619
a(F174.17352294921875
F440.29840087890625
tp620
a(F174.17352294921875
F440.29840087890625
tp621
a(F174.88392639160156
F402.16607666015625
tp622
a(F173.10108947753906
F426.39968872070312
tp623
a(F170.80815124511719
F399.80368041992188
tp624
a(F188.50202941894531
F422.68280029296875
tp625
a(F180.62068176269531
F401.92446899414062
tp626
a(F288.70657348632812
F165.98248291015625
tp627
a(F178.4586181640625
F426.1365966796875
tp628
a(F181.88072204589844
F401.28765869140625
tp629
a(F175.3177490234375
F399.70596313476562
tp630
a(F183.26397705078125
F401.20819091796875
tp631
a(F288.81341552734375
F165.99978637695312
tp632
a(F1702.9947509765625
F210.62530517578125
tp633
a(F179.30421447753906
F399.5968017578125
tp634
a(F183.7662353515625
F399.80023193359375
tp635
a(F195.10256958007812
F218.35176086425781
tp636
a(F192.39253234863281
F400.49356079101562
tp637
a(F187.41604614257812
F399.66958618164062
tp638
a(F193.86312866210938
F400.65829467773438
tp639
a(F189.05947875976562
F399.90249633789062
tp640
a(F188.84776306152344
F417.00247192382812
tp641
a(F196.31735229492188
F400.57394409179688
tp642
a(F199.11611938476562
F400.23074340820312
tp643
a(F203.6163330078125
F424.66390991210938
tp644
a(F312.8194580078125
F219.7196044921875
tp645
a(F214.61813354492188
F399.18405151367188
tp646
a(F215.84207153320312
F399.18359375
tp647
a(F216.86494445800781
F424.49969482421875
tp648
a(F216.86494445800781
F424.49969482421875
tp649
a(F219.58807373046875
F399.52969360351562
tp650
a(F220.89915466308594
F399.60275268554688
tp651
a(F220.89915466308594
F399.60275268554688
tp652
a(F214.70866394042969
F398.31610107421875
tp653
a(F215.99674987792969
F398.09725952148438
tp654
a(F221.42886352539062
F438.73703002929688
tp655
a(F221.42886352539062
F438.73703002929688
tp656
a(F217.36026000976562
F397.94754028320312
tp657
a(F218.39549255371094
F397.4498291015625
tp658
a(F199.96710205078125
F220.51329040527344
tp659
a(F207.95855712890625
F224.56565856933594
tp660
a(F218.52488708496094
F408.37728881835938
tp661
a(F288.856689453125
F165.98394775390625
tp662
a(F312.96896362304688
F219.7042236328125
tp663
a(F243.60209655761719
F439.73126220703125
tp664
a(F243.60209655761719
F439.73126220703125
tp665
a(F199.93844604492188
F220.68156433105469
tp666
a(F241.07292175292969
F406.84259033203125
tp667
a(F241.16819763183594
F396.31716918945312
tp668
a(F242.18295288085938
F396.26071166992188
tp669
a(F251.02664184570312
F397.26837158203125
tp670
a(F289.03359985351562
F165.98641967773438
tp671
a(F253.21298217773438
F396.978759765625
tp672
a(F246.02047729492188
F395.80496215820312
tp673
a(F268.16256713867188
F168.98858642578125
tp674
a(F247.55174255371094
F406.77508544921875
tp675
a(F251.24057006835938
F395.43087768554688
tp676
a(F263.02676391601562
F397.1580810546875
tp677
a(F258.82440185546875
F395.76693725585938
tp678
a(F265.03118896484375
F434.32681274414062
tp679
a(F260.53390502929688
F406.41397094726562
tp680
a(F263.28488159179688
F395.36239624023438
tp681
a(F261.65383911132812
F406.38882446289062
tp682
a(F276.53619384765625
F405.59228515625
tp683
a(F275.17550659179688
F395.92449951171875
tp684
a(F200.15025329589844
F220.78688049316406
tp685
a(F283.23562622070312
F421.17620849609375
tp686
a(F283.1571044921875
F395.2611083984375
tp687
a(F286.39822387695312
F421.12484741210938
tp688
a(F296.252685546875
F169.05557250976562
tp689
a(F289.88180541992188
F404.23281860351562
tp690
a(F299.7039794921875
F394.80572509765625
tp691
a(F293.9437255859375
F393.8681640625
tp692
a(F200.01663208007812
F220.48246765136719
tp693
a(F294.97195434570312
F393.94012451171875
tp694
a(F296.02557373046875
F393.97314453125
tp695
a(F297.14730834960938
F394.405029296875
tp696
a(F305.19033813476562
F433.21743774414062
tp697
a(F305.19033813476562
F433.21743774414062
tp698
a(F305.61825561523438
F433.19158935546875
tp699
a(F199.85076904296875
F220.66279602050781
tp700
a(F302.47915649414062
F394.75048828125
tp701
a(F305.12786865234375
F395.67984008789062
tp702
a(F199.85063171386719
F220.66279602050781
tp703
a(F308.3946533203125
F419.00668334960938
tp704
a(F308.058349609375
F399.64981079101562
tp705
a(F307.98416137695312
F395.35418701171875
tp706
a(F195.17716979980469
F218.45480346679688
tp707
a(F311.09286499023438
F419.93539428710938
tp708
a(F309.43893432617188
F395.19647216796875
tp709
a(F195.21043395996094
F218.48616027832031
tp710
a(F325.05694580078125
F434.07635498046875
tp711
a(F318.60858154296875
F405.16775512695312
tp712
a(F319.26229858398438
F404.54425048828125
tp713
a(F288.87136840820312
F165.886474609375
tp714
a(F327.3184814453125
F433.11929321289062
tp715
a(F319.60531616210938
F404.40896606445312
tp716
a(F200.04106140136719
F220.5084228515625
tp717
a(F77.30560302734375
F157.13766479492188
tp718
a(F200.16952514648438
F220.52598571777344
tp719
a(F330.87149047851562
F395.02679443359375
tp720
a(F117.95934295654297
F219.81857299804688
tp721
a(F200.1317138671875
F220.59182739257812
tp722
a(F330.04791259765625
F431.92019653320312
tp723
a(F200.12971496582031
F220.68701171875
tp724
a(F327.0953369140625
F397.40213012695312
tp725
a(F200.09664916992188
F220.70303344726562
tp726
a(F325.81509399414062
F392.618896484375
tp727
a(F200.039306640625
F220.67849731445312
tp728
a(F328.48275756835938
F418.0299072265625
tp729
a(F200.02066040039062
F220.65260314941406
tp730
a(F268.12176513671875
F168.7415771484375
tp731
a(F199.89598083496094
F220.42434692382812
tp732
a(F288.94552612304688
F165.9822998046875
tp733
a(F288.72796630859375
F166.0218505859375
tp734
a(F199.96734619140625
F220.36476135253906
tp735
a(F332.69097900390625
F429.096923828125
tp736
a(F327.63131713867188
F392.9215087890625
tp737
a(F199.90562438964844
F220.37156677246094
tp738
a(F330.00537109375
F397.43930053710938
tp739
a(F327.36376953125
F402.85842895507812
tp740
a(F328.00430297851562
F402.59271240234375
tp741
a(F327.89486694335938
F392.84307861328125
tp742
a(F330.99615478515625
F419.86038208007812
tp743
a(F267.82843017578125
F168.46940612792969
tp744
a(F199.88523864746094
F220.58869934082031
tp745
a(F338.00634765625
F414.14581298828125
tp746
a(F330.91793823242188
F419.9107666015625
tp747
a(F332.80120849609375
F428.783447265625
tp748
a(F267.85800170898438
F168.65036010742188
tp749
a(F332.8656005859375
F428.86331176757812
tp750
a(F200.20729064941406
F220.49362182617188
tp751
a(F331.23724365234375
F397.64498901367188
tp752
a(F330.85308837890625
F419.64743041992188
tp753
a(F330.9146728515625
F397.4384765625
tp754
a(F330.95913696289062
F397.45114135742188
tp755
a(F199.90550231933594
F220.61395263671875
tp756
a(F331.23843383789062
F397.55740356445312
tp757
a(F328.76071166992188
F392.82089233398438
tp758
a(F199.90541076660156
F220.61393737792969
tp759
a(F331.19915771484375
F397.44888305664062
tp760
a(F199.79328918457031
F220.58985900878906
tp761
a(F289.087646484375
F166.10316467285156
tp762
a(F199.95077514648438
F220.66934204101562
tp763
a(F328.61163330078125
F392.83419799804688
tp764
a(F328.68060302734375
F392.98171997070312
tp765
a(F331.02938842773438
F397.86001586914062
tp766
a(F331.03378295898438
F397.96511840820312
tp767
a(F332.97308349609375
F429.11532592773438
tp768
a(F328.63265991210938
F392.94174194335938
tp769
a(F331.22860717773438
F398.01058959960938
tp770
a(F328.80209350585938
F393.1907958984375
tp771
a(F200.14683532714844
F220.39476013183594
tp772
a(F331.25540161132812
F397.83267211914062
tp773
a(F331.26715087890625
F397.90093994140625
tp774
a(F331.26715087890625
F397.90093994140625
tp775
a(F328.91854858398438
F393.06167602539062
tp776
a(F335.93875122070312
F409.72109985351562
tp777
a(F329.03521728515625
F393.1871337890625
tp778
a(F331.44854736328125
F419.71630859375
tp779
a(F328.74420166015625
F393.05255126953125
tp780
a(F328.8682861328125
F393.29873657226562
tp781
a(F331.34060668945312
F397.96566772460938
tp782
a(F331.34060668945312
F397.96566772460938
tp783
a(F267.9599609375
F168.74864196777344
tp784
a(F328.792724609375
F393.3828125
tp785
a(F331.30978393554688
F397.8974609375
tp786
a(F331.30978393554688
F397.8974609375
tp787
a(F328.76141357421875
F393.13174438476562
tp788
a(F288.91204833984375
F166.05682373046875
tp789
a(F328.767578125
F393.26541137695312
tp790
a(F288.89724731445312
F166.05558776855469
tp791
a(F288.8602294921875
F165.99090576171875
tp792
a(F333.52874755859375
F389.99624633789062
tp793
a(F331.38821411132812
F398.02957153320312
tp794
a(F331.38821411132812
F398.02957153320312
tp795
a(F328.77005004882812
F393.14373779296875
tp796
a(F328.1878662109375
F403.5797119140625
tp797
a(F331.51708984375
F397.99835205078125
tp798
a(F331.51708984375
F397.99835205078125
tp799
a(F328.96286010742188
F393.1767578125
tp800
a(F328.24227905273438
F403.67965698242188
tp801
a(F200.11576843261719
F220.75581359863281
tp802
a(F328.81414794921875
F393.36984252929688
tp803
a(F200.11210632324219
F220.74151611328125
tp804
a(F328.7757568359375
F393.40890502929688
tp805
a(F59.734058380126953
F168.41267395019531
tp806
a(F328.76898193359375
F393.28256225585938
tp807
a(F200.12881469726562
F220.71817016601562
tp808
a(F199.99235534667969
F220.38743591308594
tp809
a(F327.62515258789062
F166.07164001464844
tp810
a(F331.2894287109375
F398.09271240234375
tp811
a(F331.08230590820312
F397.835693359375
tp812
a(F335.86184692382812
F409.5418701171875
tp813
a(F331.6993408203125
F419.8040771484375
tp814
a(F333.46334838867188
F389.8916015625
tp815
a(F296.6624755859375
F168.82536315917969
tp816
a(F335.78582763671875
F394.70037841796875
tp817
a(F328.42608642578125
F393.30511474609375
tp818
a(F331.72933959960938
F420.046630859375
tp819
a(F267.8515625
F168.79315185546875
tp820
a(F329.45425415039062
F383.64093017578125
tp821
a(F335.76034545898438
F394.43487548828125
tp822
a(F268.06594848632812
F168.63676452636719
tp823
a(F328.31973266601562
F393.38629150390625
tp824
a(F333.2242431640625
F389.97872924804688
tp825
a(F327.78634643554688
F404.09371948242188
tp826
a(F331.97073364257812
F420.24673461914062
tp827
a(F328.23196411132812
F393.38381958007812
tp828
a(F332.03561401367188
F420.18508911132812
tp829
a(F328.178955078125
F393.34588623046875
tp830
a(F327.86663818359375
F393.35305786132812
tp831
a(F331.73013305664062
F420.08123779296875
tp832
a(F327.9490966796875
F393.13629150390625
tp833
a(F335.68438720703125
F409.60845947265625
tp834
a(F328.1248779296875
F393.2987060546875
tp835
a(F327.50848388671875
F404.26373291015625
tp836
a(F328.1453857421875
F393.30169677734375
tp837
a(F328.00888061523438
F393.17617797851562
tp838
a(F327.87277221679688
F393.04660034179688
tp839
a(F327.91036987304688
F393.06741333007812
tp840
a(F331.5308837890625
F419.89358520507812
tp841
a(F327.92965698242188
F393.158935546875
tp842
a(F331.73214721679688
F419.7935791015625
tp843
a(F328.16622924804688
F393.19891357421875
tp844
a(F327.95346069335938
F393.15457153320312
tp845
a(F328.997802734375
F441.78387451171875
tp846
a(F329.0616455078125
F441.8074951171875
tp847
a(F328.00628662109375
F393.3101806640625
tp848
a(F267.7945556640625
F168.63870239257812
tp849
a(F267.84738159179688
F168.70330810546875
tp850
a(F328.02627563476562
F393.3026123046875
tp851
a(F327.99545288085938
F393.1593017578125
tp852
a(F327.99386596679688
F393.279296875
tp853
a(F327.97940063476562
F393.23895263671875
tp854
a(F327.91104125976562
F393.27255249023438
tp855
a(F327.96331787109375
F393.29949951171875
tp856
a(F327.8751220703125
F393.28860473632812
tp857
a(F335.64950561523438
F409.6466064453125
tp858
a(F327.95724487304688
F393.47567749023438
tp859
a(F288.87448120117188
F166.0220947265625
tp860
a(F333.08694458007812
F428.43594360351562
tp861
a(F334.635009765625
F394.4732666015625
tp862
a(F289.175537109375
F166.05035400390625
tp863
a(F637.96295166015625
F19.613943099975586
tp864
a(F332.98074340820312
F428.40359497070312
tp865
a(F296.42660522460938
F168.66532897949219
tp866
a(F217.31744384765625
F223.30587768554688
tp867
a(F153.13681030273438
F219.13662719726562
tp868
a(F327.54104614257812
F393.42950439453125
tp869
a(F288.73492431640625
F166.02249145507812
tp870
a(F332.97006225585938
F428.49737548828125
tp871
a(F288.67669677734375
F166.00486755371094
tp872
a(F344.70294189453125
F217.93296813964844
tp873
a(F332.99411010742188
F428.4732666015625
tp874
a(F288.93389892578125
F166.00418090820312
tp875
a(F344.31130981445312
F218.01751708984375
tp876
a(F208.06230163574219
F159.02633666992188
tp877
a(F327.58126831054688
F404.148681640625
tp878
a(F327.54632568359375
F404.10690307617188
tp879
a(F332.9892578125
F428.45745849609375
tp880
a(F327.760009765625
F404.17745971679688
tp881
a(F77.132415771484375
F157.17570495605469
tp882
a(F333
F428.37985229492188
tp883
a(F333
F428.37985229492188
tp884
a(F345.09710693359375
F217.65678405761719
tp885
a(F345.00790405273438
F217.83445739746094
tp886
a(F345.00790405273438
F217.83445739746094
tp887
a(F59.506877899169922
F168.47673034667969
tp888
a(F333.05517578125
F428.41326904296875
tp889
a(F332.49960327148438
F420.4827880859375
tp890
a(F328.11163330078125
F393.4957275390625
tp891
a(F289.00628662109375
F166.05735778808594
tp892
a(F333.07797241210938
F428.2760009765625
tp893
a(F333.09820556640625
F428.45004272460938
tp894
a(F344.55068969726562
F217.69876098632812
tp895
a(F344.55068969726562
F217.69876098632812
tp896
a(F637.9989013671875
F20.802431106567383
tp897
a(F289.05191040039062
F166.16926574707031
tp898
a(F333.10726928710938
F428.44955444335938
tp899
a(F289.08236694335938
F166.07421875
tp900
a(F332.96139526367188
F428.34527587890625
tp901
a(F267.99765014648438
F168.77864074707031
tp902
a(F288.81024169921875
F165.99076843261719
tp903
a(F328.0166015625
F393.3922119140625
tp904
a(F328.0107421875
F393.36209106445312
tp905
a(F333.07489013671875
F428.45394897460938
tp906
a(F331.85922241210938
F420.18368530273438
tp907
a(F331.902587890625
F420.19839477539062
tp908
a(F333.08096313476562
F428.462890625
tp909
a(F327.70083618164062
F404.06301879882812
tp910
a(F327.70230102539062
F404.1212158203125
tp911
a(F335.3812255859375
F409.50942993164062
tp912
a(F327.55718994140625
F404.19528198242188
tp913
a(F327.25064086914062
F404.28860473632812
tp914
a(F288.70654296875
F165.77033996582031
tp915
a(F207.38279724121094
F159.13433837890625
tp916
a(F332.86465454101562
F428.40850830078125
tp917
a(F326.323974609375
F403.34603881835938
tp918
a(F326.07833862304688
F403.02642822265625
tp919
a(F326.87881469726562
F403.92242431640625
tp920
a(F77.407066345214844
F157.16851806640625
tp921
a(F332.5712890625
F418.6358642578125
tp922
a(F288.81427001953125
F166.01863098144531
tp923
a(F288.85687255859375
F166.03804016113281
tp924
a(F77.164047241210938
F157.17259216308594
tp925
a(F329.575927734375
F419.2689208984375
tp926
a(F289.05209350585938
F166.08592224121094
tp927
a(F329.69342041015625
F419.71722412109375
tp928
a(F329.77926635742188
F395.43386840820312
tp929
a(F329.78561401367188
F395.3277587890625
tp930
a(F329.76177978515625
F395.33560180664062
tp931
a(F329.790283203125
F395.61846923828125
tp932
a(F333.05465698242188
F408.84234619140625
tp933
a(F333.05465698242188
F408.84234619140625
tp934
a(F330.07803344726562
F395.9344482421875
tp935
a(F332.06149291992188
F428.28900146484375
tp936
a(F331.97494506835938
F408.08517456054688
tp937
a(F288.90847778320312
F165.93281555175781
tp938
a(F324.70123291015625
F392.52737426757812
tp939
a(F331.4324951171875
F407.97384643554688
tp940
a(F323.98825073242188
F392.6697998046875
tp941
a(F331.1746826171875
F407.98117065429688
tp942
a(F268.01058959960938
F168.541748046875
tp943
a(F323.52337646484375
F392.6722412109375
tp944
a(F330.92208862304688
F407.89306640625
tp945
a(F323.231689453125
F392.96026611328125
tp946
a(F113.50171661376953
F295.45977783203125
tp947
a(F322.46554565429688
F393.04595947265625
tp948
a(F321.74813842773438
F393.14810180664062
tp949
a(F320.89080810546875
F393.26858520507812
tp950
a(F329.01593017578125
F408.03860473632812
tp951
a(F318.474609375
F393.84219360351562
tp952
a(F318.08111572265625
F404.92208862304688
tp953
a(F316.91763305664062
F394.194091796875
tp954
a(F314.94424438476562
F394.55340576171875
tp955
a(F313.90576171875
F394.3868408203125
tp956
a(F312.95571899414062
F394.14248657226562
tp957
a(F312.17672729492188
F394.13894653320312
tp958
a(F314.2296142578125
F398.39959716796875
tp959
a(F310.23919677734375
F393.50250244140625
tp960
a(F309.32794189453125
F393.30691528320312
tp961
a(F315.82888793945312
F407.56326293945312
tp962
a(F315.01571655273438
F407.1328125
tp963
a(F296.3607177734375
F168.65023803710938
tp964
a(F309.82632446289062
F394.00271606445312
tp965
a(F304.14337158203125
F392.22494506835938
tp966
a(F268.1239013671875
F168.60627746582031
tp967
a(F308.08322143554688
F394.68182373046875
tp968
a(F310.852783203125
F429.50552368164062
tp969
a(F307.28042602539062
F394.55377197265625
tp970
a(F310.36795043945312
F429.65591430664062
tp971
a(F304.06759643554688
F396.63177490234375
tp972
a(F305.68734741210938
F393.9739990234375
tp973
a(F289.10726928710938
F166.03886413574219
tp974
a(F59.725914001464844
F168.34718322753906
tp975
a(F308.0030517578125
F429.7838134765625
tp976
a(F299.21331787109375
F389.8740234375
tp977
a(F297.69717407226562
F389.15432739257812
tp978
a(F300.78652954101562
F391.8353271484375
tp979
a(F300.06735229492188
F391.94525146484375
tp980
a(F301.80453491210938
F404.54879760742188
tp981
a(F293.68280029296875
F389.15115356445312
tp982
a(F292.43838500976562
F389.3592529296875
tp983
a(F292.43521118164062
F399.56491088867188
tp984
a(F298.58956909179688
F391.05032348632812
tp985
a(F291.25241088867188
F399.86788940429688
tp986
a(F296.49407958984375
F168.82203674316406
tp987
a(F288.45318603515625
F390.19949340820312
tp988
a(F287.0322265625
F390.34011840820312
tp989
a(F77.049705505371094
F157.12086486816406
tp990
a(F281.47579956054688
F391.91256713867188
tp991
a(F277.20553588867188
F396.00653076171875
tp992
a(F275.92547607421875
F404.77047729492188
tp993
a(F296.17745971679688
F168.86824035644531
tp994
a(F296.17745971679688
F168.86824035644531
tp995
a(F245.96392822265625
F409.94558715820312
tp996
a(F267.98654174804688
F168.68476867675781
tp997
a(F243.19911193847656
F389.09500122070312
tp998
a(F288.95050048828125
F165.96998596191406
tp999
a(F288.810546875
F165.889404296875
tp1000
a(F296.25665283203125
F169.03163146972656
tp1001
a(F267.95169067382812
F168.80860900878906
tp1002
a(F162.32281494140625
F418.97076416015625
tp1003
a(F267.88101196289062
F168.69949340820312
tp1004
a(F268.3687744140625
F168.59309387207031
tp1005
a(F267.80377197265625
F168.51043701171875
tp1006
a(F344.55252075195312
F217.73776245117188
tp1007
a(F77.098602294921875
F157.12310791015625
tp1008
a(F296.504150390625
F168.74833679199219
tp1009
a(F296.41659545898438
F168.96932983398438
tp1010
a(F296.41659545898438
F168.96932983398438
tp1011
a(F244.54023742675781
F770.639892578125
tp1012
a(F227.42916870117188
F774.11456298828125
tp1013
a(F288.83779907226562
F165.96792602539062
tp1014
a(F288.8812255859375
F166.00161743164062
tp1015
a(F288.85745239257812
F166.0609130859375
tp1016
a(F189.88671875
F759.76910400390625
tp1017
a(F296.38717651367188
F168.50355529785156
tp1018
a(F209.17132568359375
F159.21293640136719
tp1019
a(F288.91738891601562
F165.78569030761719
tp1020
a(F296.42584228515625
F169.07301330566406
tp1021
a(F162.18746948242188
F730.54888916015625
tp1022
a(F288.85546875
F166.10749816894531
tp1023
a(F296.5301513671875
F168.92291259765625
tp1024
a(F177.74519348144531
F706.41949462890625
tp1025
a(F209.66494750976562
F159.00505065917969
tp1026
a(F268.2349853515625
F168.86415100097656
tp1027
a(F182.35806274414062
F690.5780029296875
tp1028
a(F186.64591979980469
F743.69903564453125
tp1029
a(F189.30494689941406
F691.81719970703125
tp1030
a(F193.63009643554688
F698.62744140625
tp1031
a(F189.64518737792969
F676.6212158203125
tp1032
a(F268.076171875
F168.79005432128906
tp1033
a(F196.66795349121094
F719.806396484375
tp1034
a(F288.73989868164062
F165.89456176757812
tp1035
a(F200.1407470703125
F676.551513671875
tp1036
a(F288.81045532226562
F165.90869140625
tp1037
a(F296.3333740234375
F168.72767639160156
tp1038
a(F232.36431884765625
F732.9844970703125
tp1039
a(F215.74021911621094
F709.44500732421875
tp1040
a(F288.91015625
F166.01316833496094
tp1041
a(F288.80267333984375
F165.89179992675781
tp1042
a(F231.79434204101562
F667.49212646484375
tp1043
a(F268.13424682617188
F168.82156372070312
tp1044
a(F268.31668090820312
F168.69113159179688
tp1045
a(F288.93988037109375
F165.96578979492188
tp1046
a(F288.9298095703125
F165.8489990234375
tp1047
a(F283.210205078125
F628.539794921875
tp1048
a(F289.044921875
F165.886962890625
tp1049
a(F293.0076904296875
F643.16015625
tp1050
a(F288.07992553710938
F617.806640625
tp1051
a(F307.65164184570312
F658.74481201171875
tp1052
a(F311.42501831054688
F642.3448486328125
tp1053
a(F311.76495361328125
F650.8116455078125
tp1054
a(F313.99191284179688
F607.47998046875
tp1055
a(F296.39968872070312
F168.87466430664062
tp1056
a(F288.84869384765625
F166.02000427246094
tp1057
a(F315.92376708984375
F645.2330322265625
tp1058
a(F317.2381591796875
F644.46002197265625
tp1059
a(F318.27178955078125
F643.54241943359375
tp1060
a(F319.76315307617188
F641.63018798828125
tp1061
a(F258.78662109375
F854.218017578125
tp1062
a(F320.457275390625
F641.652587890625
tp1063
a(F288.8499755859375
F165.95896911621094
tp1064
a(F182.06260681152344
F835.626953125
tp1065
a(F344.86544799804688
F597.1602783203125
tp1066
a(F127.70199584960938
F831.15185546875
tp1067
a(F288.9879150390625
F166.05006408691406
tp1068
a(F296.43045043945312
F168.63600158691406
tp1069
a(F350.05609130859375
F585.56439208984375
tp1070
a(F288.91439819335938
F165.95094299316406
tp1071
a(F288.90213012695312
F165.97334289550781
tp1072
a(F267.85125732421875
F168.68856811523438
tp1073
a(F296.4517822265625
F168.81442260742188
tp1074
a(F296.18154907226562
F599.2886962890625
tp1075
a(F288.80484008789062
F165.95211791992188
tp1076
a(F267.77053833007812
F168.6990966796875
tp1077
a(F163.39358520507812
F646.01800537109375
tp1078
a(F288.81045532226562
F165.99751281738281
tp1079
a(F288.80609130859375
F166.00961303710938
tp1080
a(F134.26177978515625
F689.384521484375
tp1081
a(F296.28826904296875
F168.93368530273438
tp1082
a(F296.45614624023438
F168.96405029296875
tp1083
a(F59.451648712158203
F168.40196228027344
tp1084
a(F288.7425537109375
F166
tp1085
a(F296.62625122070312
F168.83314514160156
tp1086
a(F296.522216796875
F168.75209045410156
tp1087
a(F228.94287109375
F803.09918212890625
tp1088
a(F230.02436828613281
F807.89239501953125
tp1089
a(F288.8843994140625
F165.94401550292969
tp1090
a(F327.08206176757812
F801.528564453125
tp1091
a(F327.08206176757812
F801.528564453125
tp1092
a(F279.80712890625
F788.640625
tp1093
a(F288.82717895507812
F166.0250244140625
tp1094
a(F289.02960205078125
F166.0302734375
tp1095
a(F267.93661499023438
F168.6773681640625
tp1096
a(F339.35256958007812
F721.70654296875
tp1097
a(F288.442626953125
F165.91862487792969
tp1098
a(F288.7779541015625
F165.92893981933594
tp1099
a(F321.77691650390625
F706.539306640625
tp1100
a(F308.66748046875
F701.06396484375
tp1101
a(F288.86679077148438
F165.88078308105469
tp1102
a(F267.86309814453125
F168.70034790039062
tp1103
a(F209.4310302734375
F159.0694580078125
tp1104
a(F77.287345886230469
F157.20703125
tp1105
a(F112.71923828125
F673.237548828125
tp1106
a(F288.75787353515625
F166.03804016113281
tp1107
a(F268.30435180664062
F168.89787292480469
tp1108
a(F382.84152221679688
F781.2861328125
tp1109
a(F349.1519775390625
F621.6832275390625
tp1110
a(F339.88580322265625
F806.583984375
tp1111
a(F217.28811645507812
F822.7325439453125
tp1112
a(F288.97021484375
F165.89570617675781
tp1113
a(F163.74923706054688
F840.63287353515625
tp1114
a(F51.958633422851562
F872.15167236328125
tp1115
a(F37.57318115234375
F872.80816650390625
tp1116
a(F296.43301391601562
F168.83255004882812
tp1117
a(F288.92874145507812
F165.97273254394531
tp1118
a(F268.0369873046875
F168.76838684082031
tp1119
a(F268.36489868164062
F168.76052856445312
tp1120
a(F288.87826538085938
F166.03373718261719
tp1121
a(F296.73455810546875
F168.7108154296875
tp1122
a(F289.0516357421875
F166.01754760742188
tp1123
a(F199.45602416992188
F679.88299560546875
tp1124
a(F1692.9698486328125
F213.28776550292969
tp1125
a(F59.840843200683594
F168.51325988769531
tp1126
a(F207.86900329589844
F159.11279296875
tp1127
a(F267.90875244140625
F168.62908935546875
tp1128
a(F333.63638305664062
F236.68986511230469
tp1129
a(F288.79177856445312
F165.92976379394531
tp1130
a(F89.072517395019531
F690.66851806640625
tp1131
a(F288.65512084960938
F166.03668212890625
tp1132
a(F1489.9581298828125
F214.945556640625
tp1133
a(F182.08612060546875
F45.994228363037109
tp1134
a(F208.89201354980469
F159.07261657714844
tp1135
a(F288.93878173828125
F165.97016906738281
tp1136
a(F267.94915771484375
F168.63803100585938
tp1137
a(F288.81857299804688
F165.92469787597656
tp1138
a(F267.90475463867188
F168.57478332519531
tp1139
a(F296.4415283203125
F168.85319519042969
tp1140
a(F368.577880859375
F634.2261962890625
tp1141
a(F288.99050903320312
F165.99899291992188
tp1142
a(F288.80429077148438
F166.07356262207031
tp1143
a(F289.03976440429688
F166.08004760742188
tp1144
a(F242.13619995117188
F596.71417236328125
tp1145
a(F288.70599365234375
F165.95384216308594
tp1146
a(F208.04605102539062
F159.08056640625
tp1147
a(F268.18179321289062
F168.78614807128906
tp1148
a(F115.42253875732422
F485.20733642578125
tp1149
a(F265.53152465820312
F32.434761047363281
tp1150
a(F296.2918701171875
F169.15785217285156
tp1151
a(F288.76467895507812
F165.96951293945312
tp1152
a(F288.8671875
F166.03337097167969
tp1153
a(F288.83135986328125
F165.99679565429688
tp1154
a(F77.4393310546875
F157.31999206542969
tp1155
a(F268.09011840820312
F168.71572875976562
tp1156
a(F288.90090942382812
F165.8948974609375
tp1157
a(F288.81173706054688
F165.827392578125
tp1158
a(F268.22149658203125
F168.61459350585938
tp1159
a(F59.863487243652344
F168.51951599121094
tp1160
a(F268.24874877929688
F168.65641784667969
tp1161
a(F288.86618041992188
F165.94345092773438
tp1162
a(F182.32470703125
F46.222515106201172
tp1163
a(F296.4010009765625
F168.88258361816406
tp1164
a(F296.2305908203125
F168.990478515625
tp1165
a(F289.02960205078125
F165.98725891113281
tp1166
a(F288.90625
F166.09135437011719
tp1167
a(F325.6715087890625
F440.46658325195312
tp1168
a(F288.99664306640625
F166.08787536621094
tp1169
a(F288.97894287109375
F166.07618713378906
tp1170
a(F296.58084106445312
F168.82536315917969
tp1171
a(F288.86102294921875
F165.99844360351562
tp1172
a(F289.04965209960938
F165.98471069335938
tp1173
a(F289.02401733398438
F165.90589904785156
tp1174
a(F289.07406616210938
F166.16984558105469
tp1175
a(F288.77346801757812
F165.93171691894531
tp1176
a(F244.90556335449219
F614.3475341796875
tp1177
a(F288.77783203125
F166.03121948242188
tp1178
a(F443.06448364257812
F692.0638427734375
tp1179
a(F214.81753540039062
F611.29937744140625
tp1180
a(F205.23257446289062
F685.46417236328125
tp1181
a(F206.80987548828125
F612.31768798828125
tp1182
a(F438.8792724609375
F745.0482177734375
tp1183
a(F267.67153930664062
F168.58697509765625
tp1184
a(F197.91319274902344
F613.85272216796875
tp1185
a(F76.947364807128906
F157.31843566894531
tp1186
a(F77.083763122558594
F157.13487243652344
tp1187
a(F60.060092926025391
F168.49188232421875
tp1188
a(F268.3009033203125
F168.78369140625
tp1189
a(F77.255668640136719
F157.20516967773438
tp1190
a(F134.15499877929688
F689.8184814453125
tp1191
a(F247.55392456054688
F702.81610107421875
tp1192
a(F253.77655029296875
F716.8875732421875
tp1193
a(F268.12356567382812
F168.761962890625
tp1194
a(F89.837669372558594
F621.80279541015625
tp1195
a(F288.92849731445312
F166.09515380859375
tp1196
a(F216.12251281738281
F693.4344482421875
tp1197
a(F288.94985961914062
F165.99700927734375
tp1198
a(F215.90589904785156
F647.4134521484375
tp1199
a(F288.90127563476562
F165.90458679199219
tp1200
a(F288.94674682617188
F166.02996826171875
tp1201
a(F296.3385009765625
F168.88412475585938
tp1202
a(F288.9649658203125
F165.96549987792969
tp1203
a(F289.01364135742188
F166.02874755859375
tp1204
a(F289.11114501953125
F165.98056030273438
tp1205
a(F394.8634033203125
F464.33551025390625
tp1206
a(F390.24917602539062
F445.33135986328125
tp1207
a(F382.10049438476562
F447.31607055664062
tp1208
a(F361.97164916992188
F439.0511474609375
tp1209
a(F342.75180053710938
F425.83792114257812
tp1210
a(F335.23529052734375
F421.69744873046875
tp1211
a(F331.68447875976562
F431.76040649414062
tp1212
a(F328.1041259765625
F431.66217041015625
tp1213
a(F325.5054931640625
F451.15850830078125
tp1214
a(F322.42111206054688
F451.44598388671875
tp1215
a(F344.09222412109375
F586.86065673828125
tp1216
a(F76.747055053710938
F401.8916015625
tp1217
a(F311.37115478515625
F426.16827392578125
tp1218
a(F77.179962158203125
F157.11795043945312
tp1219
a(F77.696502685546875
F157.25248718261719
tp1220
a(F303.40310668945312
F423.68377685546875
tp1221
a(F301.03860473632812
F424.28610229492188
tp1222
a(F298.12637329101562
F443.46218872070312
tp1223
a(F295.60519409179688
F442.6251220703125
tp1224
a(F296.67034912109375
F423.80215454101562
tp1225
a(F287.59451293945312
F434.03598022460938
tp1226
a(F285.81466674804688
F416.10018920898438
tp1227
a(F283.18081665039062
F415.73629760742188
tp1228
a(F280.514404296875
F416.18963623046875
tp1229
a(F288.84686279296875
F165.98576354980469
tp1230
a(F288.94189453125
F166.02072143554688
tp1231
a(F270.24612426757812
F428.30764770507812
tp1232
a(F77.549552917480469
F157.14897155761719
tp1233
a(F268.1962890625
F426.54702758789062
tp1234
a(F255.10392761230469
F409.78054809570312
tp1235
a(F266.04946899414062
F426.07962036132812
tp1236
a(F262.41299438476562
F408.65338134765625
tp1237
a(F250.32151794433594
F393.02243041992188
tp1238
a(F250.55848693847656
F419.56246948242188
tp1239
a(F288.68951416015625
F166.05046081542969
tp1240
a(F248.69361877441406
F401.7894287109375
tp1241
a(F288.90921020507812
F165.86146545410156
tp1242
a(F244.19711303710938
F420.33657836914062
tp1243
a(F234.15472412109375
F389.98977661132812
tp1244
a(F229.8154296875
F413.9119873046875
tp1245
a(F387.253173828125
F531.81915283203125
tp1246
a(F288.87472534179688
F165.85922241210938
tp1247
a(F216.1131591796875
F409.57452392578125
tp1248
a(F224.53643798828125
F397.50430297851562
tp1249
a(F214.05513000488281
F408.45782470703125
tp1250
a(F222.26176452636719
F396.58941650390625
tp1251
a(F212.51177978515625
F408.10018920898438
tp1252
a(F220.33541870117188
F396.68838500976562
tp1253
a(F288.86746215820312
F165.87498474121094
tp1254
a(F210.94888305664062
F408.28927612304688
tp1255
a(F267.99566650390625
F168.71446228027344
tp1256
a(F288.72381591796875
F165.95988464355469
tp1257
a(F296.45751953125
F168.83888244628906
tp1258
a(F268.00054931640625
F168.72499084472656
tp1259
a(F184.88973999023438
F406.78717041015625
tp1260
a(F176.11785888671875
F388.76071166992188
tp1261
a(F174.49789428710938
F406.81265258789062
tp1262
a(F172.07737731933594
F390.11190795898438
tp1263
a(F172.23905944824219
F408.267333984375
tp1264
a(F167.95567321777344
F417.22244262695312
tp1265
a(F163.24281311035156
F395.43023681640625
tp1266
a(F159.2166748046875
F410.8765869140625
tp1267
a(F268.19973754882812
F168.69197082519531
tp1268
a(F153.98345947265625
F402.82717895507812
tp1269
a(F154.5009765625
F394.66860961914062
tp1270
a(F153.70387268066406
F394.13229370117188
tp1271
a(F153.25869750976562
F393.8336181640625
tp1272
a(F158.58613586425781
F409.30349731445312
tp1273
a(F155.42398071289062
F400.62860107421875
tp1274
a(F164.13729858398438
F409.48959350585938
tp1275
a(F166.14903259277344
F409.06976318359375
tp1276
a(F167.78324890136719
F409.276611328125
tp1277
a(F374.22695922851562
F500.9967041015625
tp1278
a(F357.6474609375
F513.53948974609375
tp1279
a(F288.945556640625
F165.87571716308594
tp1280
a(F209.14248657226562
F159.0540771484375
tp1281
a(F209.29109191894531
F159.14791870117188
tp1282
a(F182.1031494140625
F46.065013885498047
tp1283
a(F186.12289428710938
F402.85409545898438
tp1284
a(F182.57766723632812
F405.90438842773438
tp1285
a(F182.57766723632812
F405.90438842773438
tp1286
a(F289.00323486328125
F165.90760803222656
tp1287
a(F146.1763916015625
F420.64285278320312
tp1288
a(F289.07302856445312
F165.91476440429688
tp1289
a(F143.89706420898438
F419.93121337890625
tp1290
a(F289.01959228515625
F165.9967041015625
tp1291
a(F117.08721160888672
F423.61074829101562
tp1292
a(F342.90371704101562
F525.84613037109375
tp1293
a(F119.84510803222656
F432.50387573242188
tp1294
a(F116.86810302734375
F420.89569091796875
tp1295
a(F109.24455261230469
F436.44342041015625
tp1296
a(F268.22927856445312
F168.75936889648438
tp1297
a(F108.00405120849609
F433.387451171875
tp1298
a(F102.57273101806641
F431.60415649414062
tp1299
a(F100.08735656738281
F432.144287109375
tp1300
a(F93.4376220703125
F436.77676391601562
tp1301
a(F99.094123840332031
F474.97122192382812
tp1302
a(F241.42875671386719
F351.08541870117188
tp1303
a(F86.484092712402344
F443.99432373046875
tp1304
a(F83.350349426269531
F447.9276123046875
tp1305
a(F60.818351745605469
F439.74310302734375
tp1306
a(F66.533042907714844
F464.94854736328125
tp1307
a(F64.838760375976562
F466.03463745117188
tp1308
a(F350.21273803710938
F606.01959228515625
tp1309
a(F301.79916381835938
F612.69940185546875
tp1310
a(F268.13168334960938
F168.78610229492188
tp1311
a(F288.85757446289062
F165.88038635253906
tp1312
a(F288.91250610351562
F165.91777038574219
tp1313
a(F268.08831787109375
F168.81022644042969
tp1314
a(F288.91519165039062
F165.91937255859375
tp1315
a(F304.95883178710938
F615.4437255859375
tp1316
a(F288.80401611328125
F166.07597351074219
tp1317
a(F77.406951904296875
F157.08694458007812
tp1318
a(F265.89132690429688
F594.2584228515625
tp1319
a(F265.89132690429688
F594.2584228515625
tp1320
a(F288.6602783203125
F577.05426025390625
tp1321
a(F314.86764526367188
F211.72674560546875
tp1322
a(F276.88137817382812
F17.872856140136719
tp1323
a(F268.12301635742188
F168.74395751953125
tp1324
a(F216.69943237304688
F583.2359619140625
tp1325
a(F288.97259521484375
F166.07296752929688
tp1326
a(F288.90298461914062
F165.94801330566406
tp1327
a(F268.73480224609375
F168.87052917480469
tp1328
a(F268.27450561523438
F168.91036987304688
tp1329
a(F288.884765625
F166.0408935546875
tp1330
a(F268.37741088867188
F168.7777099609375
tp1331
a(F288.82522583007812
F165.99441528320312
tp1332
a(F288.87713623046875
F165.98600769042969
tp1333
a(F172.40275573730469
F361.37908935546875
tp1334
a(F29.618160247802734
F477.44442749023438
tp1335
a(F288.86907958984375
F165.86441040039062
tp1336
a(F55.917026519775391
F568.68218994140625
tp1337
a(F267.993408203125
F168.70085144042969
tp1338
a(F205.19851684570312
F226.04139709472656
tp1339
a(F56.725353240966797
F492.44833374023438
tp1340
a(F60.917251586914062
F511.5078125
tp1341
a(F57.226825714111328
F492.27294921875
tp1342
a(F57.942607879638672
F491.95501708984375
tp1343
a(F58.865619659423828
F492.08779907226562
tp1344
a(F45.223838806152344
F470.03543090820312
tp1345
a(F46.014015197753906
F470.16159057617188
tp1346
a(F60.728446960449219
F493.07220458984375
tp1347
a(F60.754528045654297
F493.27731323242188
tp1348
a(F61.799716949462891
F493.58035278320312
tp1349
a(F67.59234619140625
F502.13168334960938
tp1350
a(F67.59234619140625
F502.13168334960938
tp1351
a(F288.84466552734375
F165.98771667480469
tp1352
a(F69.42138671875
F507.28585815429688
tp1353
a(F268.04605102539062
F168.51913452148438
tp1354
a(F69.650825500488281
F495.95620727539062
tp1355
a(F70.31915283203125
F496.07308959960938
tp1356
a(F78.082389831542969
F502.12307739257812
tp1357
a(F77.245826721191406
F499.24179077148438
tp1358
a(F77.757987976074219
F499.94415283203125
tp1359
a(F78.496673583984375
F501.34036254882812
tp1360
a(F78.580429077148438
F501.29464721679688
tp1361
a(F74.330314636230469
F481.1895751953125
tp1362
a(F296.75775146484375
F168.75082397460938
tp1363
a(F288.8624267578125
F166.08425903320312
tp1364
a(F84.430984497070312
F505.8367919921875
tp1365
a(F288.85232543945312
F165.88526916503906
tp1366
a(F95.766082763671875
F496.26025390625
tp1367
a(F99.589340209960938
F489.6812744140625
tp1368
a(F100.45682525634766
F519.95965576171875
tp1369
a(F103.842529296875
F517.72039794921875
tp1370
a(F349.54867553710938
F588.302734375
tp1371
a(F107.6279296875
F525.85394287109375
tp1372
a(F69.055152893066406
F163.7275390625
tp1373
a(F77.094268798828125
F157.224609375
tp1374
a(F112.66199493408203
F512.81463623046875
tp1375
a(F278.64459228515625
F643.93792724609375
tp1376
a(F114.16728973388672
F537.90380859375
tp1377
a(F113.73535919189453
F537.907958984375
tp1378
a(F296.43685913085938
F168.7142333984375
tp1379
a(F102.67897033691406
F521.26995849609375
tp1380
a(F112.97888946533203
F536.55181884765625
tp1381
a(F113.83222961425781
F524.2733154296875
tp1382
a(F111.10311889648438
F536.24322509765625
tp1383
a(F98.556983947753906
F513.65814208984375
tp1384
a(F101.92292785644531
F534.8873291015625
tp1385
a(F100.22502899169922
F528.06072998046875
tp1386
a(F76.872543334960938
F157.55412292480469
tp1387
a(F101.62238311767578
F533.92425537109375
tp1388
a(F112.46701812744141
F548.536376953125
tp1389
a(F102.80642700195312
F540.54046630859375
tp1390
a(F102.80642700195312
F540.54046630859375
tp1391
a(F91.865615844726562
F509.02642822265625
tp1392
a(F99.115219116210938
F511.78915405273438
tp1393
a(F288.92578125
F165.99723815917969
tp1394
a(F83.8275146484375
F527.94708251953125
tp1395
a(F268.14743041992188
F168.65727233886719
tp1396
a(F82.060745239257812
F528.1424560546875
tp1397
a(F80.272560119628906
F527.88299560546875
tp1398
a(F268.09304809570312
F168.62283325195312
tp1399
a(F64.009941101074219
F506.94216918945312
tp1400
a(F288.82638549804688
F165.91981506347656
tp1401
a(F268.02716064453125
F168.56942749023438
tp1402
a(F267.92306518554688
F168.55764770507812
tp1403
a(F288.81494140625
F165.91154479980469
tp1404
a(F53.414340972900391
F497.17959594726562
tp1405
a(F59.870567321777344
F520.58111572265625
tp1406
a(F52.041549682617188
F514.19244384765625
tp1407
a(F209.83345031738281
F159.14700317382812
tp1408
a(F39.611152648925781
F506.03778076171875
tp1409
a(F39.611152648925781
F506.03778076171875
tp1410
a(F69.025985717773438
F163.63911437988281
tp1411
a(F68.778419494628906
F163.61648559570312
tp1412
a(F289.04849243164062
F165.95916748046875
tp1413
a(F268.0272216796875
F168.6361083984375
tp1414
a(F288.82586669921875
F165.8302001953125
tp1415
a(F288.73248291015625
F165.80960083007812
tp1416
a(F59.765209197998047
F168.67218017578125
tp1417
a(F268.3170166015625
F168.55793762207031
tp1418
a(F116.32646942138672
F575.9718017578125
tp1419
a(F137.95924377441406
F593.8193359375
tp1420
a(F59.502735137939453
F168.52558898925781
tp1421
a(F268.37997436523438
F168.68789672851562
tp1422
a(F268.25531005859375
F168.57707214355469
tp1423
a(F268.38458251953125
F168.62454223632812
tp1424
a(F268.2740478515625
F168.69369506835938
tp1425
a(F268.25912475585938
F168.68276977539062
tp1426
a(F288.8155517578125
F165.88702392578125
tp1427
a(F115.20081329345703
F405.81179809570312
tp1428
a(F145.82545471191406
F387.86965942382812
tp1429
a(F141.47811889648438
F398.55422973632812
tp1430
a(F209.74819946289062
F166.21366882324219
tp1431
a(F148.60496520996094
F397.85238647460938
tp1432
a(F288.79742431640625
F165.77996826171875
tp1433
a(F60.656379699707031
F231.28617858886719
tp1434
a(F289.01068115234375
F165.91877746582031
tp1435
a(F232.40863037109375
F396.49752807617188
tp1436
a(F289.06268310546875
F165.78759765625
tp1437
a(F283.38900756835938
F375.525146484375
tp1438
a(F267.529296875
F168.57345581054688
tp1439
a(F334.02029418945312
F364.43063354492188
tp1440
a(F267.53640747070312
F168.50306701660156
tp1441
a(F267.46359252929688
F168.43368530273438
tp1442
a(F387.10922241210938
F360.57876586914062
tp1443
a(F267.7396240234375
F168.41647338867188
tp1444
a(F288.71109008789062
F165.96015930175781
tp1445
a(F267.7069091796875
F168.49491882324219
tp1446
a(F267.79779052734375
F168.473388671875
tp1447
a(F288.83529663085938
F165.95365905761719
tp1448
a(F1045.4892578125
F212.02487182617188
tp1449
a(F289.20437622070312
F165.76814270019531
tp1450
a(F288.941650390625
F165.80416870117188
tp1451
a(F268.23495483398438
F168.672119140625
tp1452
a(F288.92413330078125
F165.89291381835938
tp1453
a(F1446.095947265625
F209.9698486328125
tp1454
a(F68.991004943847656
F163.72459411621094
tp1455
a(F288.93435668945312
F165.76664733886719
tp1456
a(F288.895751953125
F165.789794921875
tp1457
a(F268.39743041992188
F168.74577331542969
tp1458
a(F268.10504150390625
F168.66148376464844
tp1459
a(F267.94436645507812
F168.43048095703125
tp1460
a(F267.95135498046875
F168.4324951171875
tp1461
a(F268.06503295898438
F168.63652038574219
tp1462
a(F69.120086669921875
F163.39637756347656
tp1463
a(F289.01242065429688
F165.95124816894531
tp1464
a(F288.97216796875
F165.82669067382812
tp1465
a(F288.89404296875
F165.8369140625
tp1466
a(F268.35885620117188
F168.63201904296875
tp1467
a(F268.31396484375
F168.68183898925781
tp1468
a(F432.12393188476562
F733.4219970703125
tp1469
a(F268.10543823242188
F168.38841247558594
tp1470
a(F289.06964111328125
F165.96319580078125
tp1471
a(F287.74166870117188
F230.01907348632812
tp1472
a(F289.0732421875
F165.97511291503906
tp1473
a(F356.038818359375
F766.88262939453125
tp1474
a(F288.9676513671875
F165.91099548339844
tp1475
a(F268.29840087890625
F168.64060974121094
tp1476
a(F200.09416198730469
F220.44645690917969
tp1477
a(F1796.6834716796875
F208.49186706542969
tp1478
a(F268.10391235351562
F168.68051147460938
tp1479
a(F68.864219665527344
F163.63238525390625
tp1480
a(F199.75877380371094
F220.41444396972656
tp1481
a(F313.08062744140625
F230.06053161621094
tp1482
a(F199.77505493164062
F220.36370849609375
tp1483
a(F194.92889404296875
F218.40904235839844
tp1484
a(F199.87001037597656
F220.35353088378906
tp1485
a(F68.983123779296875
F163.69474792480469
tp1486
a(F199.93623352050781
F220.400146484375
tp1487
a(F268.18991088867188
F168.62638854980469
tp1488
a(F200.05831909179688
F220.45974731445312
tp1489
a(F200.32026672363281
F220.41929626464844
tp1490
a(F200.20501708984375
F220.51182556152344
tp1491
a(F200.37873840332031
F220.53024291992188
tp1492
a(F200.23138427734375
F220.543212890625
tp1493
a(F268.2662353515625
F168.72023010253906
tp1494
a(F319.7083740234375
F230.20445251464844
tp1495
a(F68.923492431640625
F163.59593200683594
tp1496
a(F319.75570678710938
F230.22221374511719
tp1497
a(F199.92143249511719
F220.58837890625
tp1498
a(F320.08120727539062
F230.35763549804688
tp1499
a(F267.88095092773438
F168.48579406738281
tp1500
a(F194.85389709472656
F218.40657043457031
tp1501
a(F200.12028503417969
F220.42532348632812
tp1502
a(F194.87979125976562
F218.37870788574219
tp1503
a(F199.9595947265625
F220.39993286132812
tp1504
a(F200.09796142578125
F220.45683288574219
tp1505
a(F268.02133178710938
F168.67398071289062
tp1506
a(F200.12086486816406
F220.44160461425781
tp1507
a(F199.95513916015625
F220.44886779785156
tp1508
a(F200.02299499511719
F220.64054870605469
tp1509
a(F199.99043273925781
F220.42353820800781
tp1510
a(F68.959732055664062
F163.72322082519531
tp1511
a(F200.09748840332031
F220.41215515136719
tp1512
a(F288.966796875
F165.79542541503906
tp1513
a(F200.0487060546875
F220.38336181640625
tp1514
a(F316.36361694335938
F222.14060974121094
tp1515
a(F200.19976806640625
F220.54241943359375
tp1516
a(F316.32781982421875
F222.15829467773438
tp1517
a(F200.228759765625
F220.57937622070312
tp1518
a(F200.20838928222656
F220.60800170898438
tp1519
a(F195.10044860839844
F218.41297912597656
tp1520
a(F199.90753173828125
F220.60189819335938
tp1521
a(F195.1014404296875
F218.41313171386719
tp1522
a(F199.94294738769531
F220.59153747558594
tp1523
a(F199.97760009765625
F220.58026123046875
tp1524
a(F195.1298828125
F218.30245971679688
tp1525
a(F199.83969116210938
F220.47100830078125
tp1526
a(F288.9195556640625
F165.77789306640625
tp1527
a(F199.62632751464844
F220.35647583007812
tp1528
a(F199.76150512695312
F220.32728576660156
tp1529
a(F200.0162353515625
F220.57302856445312
tp1530
a(F194.96173095703125
F218.36468505859375
tp1531
a(F268.25051879882812
F168.86032104492188
tp1532
a(F268.19662475585938
F168.60395812988281
tp1533
a(F59.955066680908203
F168.3778076171875
tp1534
a(F200.12730407714844
F220.43707275390625
tp1535
a(F199.61328125
F220.49703979492188
tp1536
a(F199.98095703125
F220.42655944824219
tp1537
a(F117.24046325683594
F219.84619140625
tp1538
a(F199.95138549804688
F220.42716979980469
tp1539
a(F199.94355773925781
F220.43585205078125
tp1540
a(F199.94361877441406
F220.43585205078125
tp1541
a(F268.30673217773438
F168.68672180175781
tp1542
a(F199.91925048828125
F220.44143676757812
tp1543
a(F199.94024658203125
F220.44076538085938
tp1544
a(F268.1361083984375
F168.47210693359375
tp1545
a(F199.95553588867188
F220.44207763671875
tp1546
a(F69.012992858886719
F163.61470031738281
tp1547
a(F199.91006469726562
F220.44253540039062
tp1548
a(F288.94293212890625
F165.93603515625
tp1549
a(F69.048019409179688
F163.55087280273438
tp1550
a(F200.12347412109375
F220.47604370117188
tp1551
a(F200.13978576660156
F220.47982788085938
tp1552
a(F200.13076782226562
F220.54789733886719
tp1553
a(F195.13639831542969
F218.34825134277344
tp1554
a(F268.25613403320312
F168.4541015625
tp1555
a(F199.82557678222656
F220.39323425292969
tp1556
a(F267.74737548828125
F168.59463500976562
tp1557
a(F199.879150390625
F220.38876342773438
tp1558
a(F199.98394775390625
F220.36869812011719
tp1559
a(F288.63397216796875
F165.74716186523438
tp1560
a(F268.18780517578125
F168.6641845703125
tp1561
a(F200.10958862304688
F220.43730163574219
tp1562
a(F200.09355163574219
F220.39218139648438
tp1563
a(F200.09628295898438
F220.39334106445312
tp1564
a(F267.75912475585938
F168.48016357421875
tp1565
a(F268.01644897460938
F168.62171936035156
tp1566
a(F289.154296875
F165.89390563964844
tp1567
a(F199.64208984375
F220.52651977539062
tp1568
a(F200.05783081054688
F220.43264770507812
tp1569
a(F200.02023315429688
F220.43339538574219
tp1570
a(F288.92864990234375
F165.80790710449219
tp1571
a(F199.93264770507812
F220.46475219726562
tp1572
a(F288.866455078125
F165.80128479003906
tp1573
a(F200.05162048339844
F220.3173828125
tp1574
a(F268.25735473632812
F168.63009643554688
tp1575
a(F268.37908935546875
F168.56570434570312
tp1576
a(F200.03445434570312
F220.35435485839844
tp1577
a(F289.04190063476562
F166.04071044921875
tp1578
a(F321.86181640625
F222.15328979492188
tp1579
a(F209.01054382324219
F159.20657348632812
tp1580
a(F60.067996978759766
F168.44306945800781
tp1581
a(F199.866943359375
F220.42880249023438
tp1582
a(F268.25222778320312
F168.63819885253906
tp1583
a(F267.99017333984375
F168.59503173828125
tp1584
a(F199.96432495117188
F220.39863586425781
tp1585
a(F268.44546508789062
F168.63771057128906
tp1586
a(F200.04421997070312
F220.34576416015625
tp1587
a(F267.97784423828125
F168.326904296875
tp1588
a(F200.07929992675781
F220.40914916992188
tp1589
a(F268.01376342773438
F168.48248291015625
tp1590
a(F200.0380859375
F220.46604919433594
tp1591
a(F878.33587646484375
F187.59776306152344
tp1592
a(F268.35302734375
F168.63868713378906
tp1593
a(F288.8326416015625
F165.81745910644531
tp1594
a(F288.8558349609375
F165.88406372070312
tp1595
a(F200.12335205078125
F220.40859985351562
tp1596
a(F288.92831420898438
F165.91392517089844
tp1597
a(F268.41513061523438
F168.70262145996094
tp1598
a(F199.79315185546875
F220.31764221191406
tp1599
a(F268.06716918945312
F168.59747314453125
tp1600
a(F209.06632995605469
F159.20945739746094
tp1601
a(F268.05938720703125
F168.64982604980469
tp1602
a(F268.06484985351562
F168.6363525390625
tp1603
a(F267.81195068359375
F168.51548767089844
tp1604
a(F267.6552734375
F168.42405700683594
tp1605
a(F267.79376220703125
F168.42449951171875
tp1606
a(F268.11941528320312
F168.71745300292969
tp1607
a(F288.93548583984375
F165.93232727050781
tp1608
a(F288.91607666015625
F165.87751770019531
tp1609
a(F200.21632385253906
F220.36100769042969
tp1610
a(F200.09617614746094
F220.38719177246094
tp1611
a(F199.93482971191406
F220.41413879394531
tp1612
a(F199.87771606445312
F220.47099304199219
tp1613
a(F199.89346313476562
F220.54296875
tp1614
a(F288.67379760742188
F165.9521484375
tp1615
a(F327.59088134765625
F217.61271667480469
tp1616
a(F194.88528442382812
F218.45611572265625
tp1617
a(F267.80438232421875
F168.4697265625
tp1618
a(F217.941162109375
F223.46034240722656
tp1619
a(F296.68911743164062
F168.61611938476562
tp1620
a(F1380.8271484375
F211.47886657714844
tp1621
a(F288.961181640625
F165.89785766601562
tp1622
a(F268.06033325195312
F168.41990661621094
tp1623
a(F289.00527954101562
F165.9068603515625
tp1624
a(F289.04705810546875
F165.85856628417969
tp1625
a(F267.89578247070312
F168.40742492675781
tp1626
a(F68.709770202636719
F163.69497680664062
tp1627
a(F268.0037841796875
F168.40083312988281
tp1628
a(F289.00390625
F165.94602966308594
tp1629
a(F268.12594604492188
F168.47117614746094
tp1630
a(F268.28262329101562
F168.66184997558594
tp1631
a(F157.75009155273438
F215.10940551757812
tp1632
a(F267.98385620117188
F168.59315490722656
tp1633
a(F157.82302856445312
F215.09822082519531
tp1634
a(F288.92800903320312
F165.89044189453125
tp1635
a(F288.82122802734375
F165.72486877441406
tp1636
a(F267.83151245117188
F168.50460815429688
tp1637
a(F288.740966796875
F165.79348754882812
tp1638
a(F267.99984741210938
F168.44912719726562
tp1639
a(F288.947998046875
F165.89057922363281
tp1640
a(F268.45330810546875
F168.74282836914062
tp1641
a(F268.18075561523438
F168.58738708496094
tp1642
a(F268.24246215820312
F168.56936645507812
tp1643
a(F288.61068725585938
F165.87612915039062
tp1644
a(F268.18661499023438
F168.71238708496094
tp1645
a(F268.00274658203125
F168.50242614746094
tp1646
a(F267.92816162109375
F168.680419921875
tp1647
a(F69.104080200195312
F163.71992492675781
tp1648
a(F267.78466796875
F168.45570373535156
tp1649
a(F267.7218017578125
F168.4505615234375
tp1650
a(F267.91616821289062
F168.61618041992188
tp1651
a(F268.33551025390625
F168.64323425292969
tp1652
a(F268.08462524414062
F168.47254943847656
tp1653
a(F289.03958129882812
F165.73512268066406
tp1654
a(F288.85977172851562
F165.75128173828125
tp1655
a(F288.92974853515625
F165.76371765136719
tp1656
a(F267.97348022460938
F168.49913024902344
tp1657
a(F288.84262084960938
F165.81074523925781
tp1658
a(F267.86044311523438
F168.34420776367188
tp1659
a(F267.80294799804688
F168.46446228027344
tp1660
a(F268.05078125
F168.43328857421875
tp1661
a(F289.04107666015625
F165.80221557617188
tp1662
a(F68.91552734375
F163.53657531738281
tp1663
a(F268.1072998046875
F168.47219848632812
tp1664
a(F268.05648803710938
F168.44020080566406
tp1665
a(F288.95382690429688
F165.75386047363281
tp1666
a(F268.11395263671875
F168.52949523925781
tp1667
a(F267.955322265625
F168.38041687011719
tp1668
a(F268.23318481445312
F168.56341552734375
tp1669
a(F288.66848754882812
F165.82608032226562
tp1670
a(F288.79867553710938
F165.78781127929688
tp1671
a(F267.92919921875
F168.72380065917969
tp1672
a(F268.17050170898438
F168.70613098144531
tp1673
a(F268.19537353515625
F168.47102355957031
tp1674
a(F288.81668090820312
F165.84686279296875
tp1675
a(F288.94754028320312
F165.82966613769531
tp1676
a(F267.98202514648438
F168.56137084960938
tp1677
a(F288.836669921875
F165.83819580078125
tp1678
a(F289.06729125976562
F165.81253051757812
tp1679
a(F268.304443359375
F168.63227844238281
tp1680
a(F268.11083984375
F168.46421813964844
tp1681
a(F288.9547119140625
F165.73028564453125
tp1682
a(F68.998672485351562
F163.71243286132812
tp1683
a(F182.457275390625
F45.859443664550781
tp1684
a(F267.99313354492188
F168.45376586914062
tp1685
a(F267.98876953125
F168.4713134765625
tp1686
a(F267.98025512695312
F168.43275451660156
tp1687
a(F267.92987060546875
F168.35209655761719
tp1688
a(F268.0897216796875
F168.49468994140625
tp1689
a(F288.887939453125
F165.90972900390625
tp1690
a(F1856.1495361328125
F209.2869873046875
tp1691
a(F68.813003540039062
F163.71722412109375
tp1692
a(F69.080963134765625
F163.71728515625
tp1693
a(F267.92678833007812
F168.52189636230469
tp1694
a(F268.16879272460938
F168.71894836425781
tp1695
a(F268.15863037109375
F168.688232421875
tp1696
a(F267.89898681640625
F168.47871398925781
tp1697
a(F68.885826110839844
F163.69395446777344
tp1698
a(F268.1729736328125
F168.62686157226562
tp1699
a(F268.43447875976562
F168.69822692871094
tp1700
a(F288.79388427734375
F165.92269897460938
tp1701
a(F267.96771240234375
F168.48489379882812
tp1702
a(F268.09869384765625
F168.48600769042969
tp1703
a(F267.98403930664062
F168.44854736328125
tp1704
a(F267.8404541015625
F168.37677001953125
tp1705
a(F268.2576904296875
F168.73881530761719
tp1706
a(F1856.1591796875
F209.49267578125
tp1707
a(F267.916259765625
F168.52391052246094
tp1708
a(F289.08029174804688
F165.76332092285156
tp1709
a(F268.01766967773438
F168.60491943359375
tp1710
a(F267.83209228515625
F168.56770324707031
tp1711
a(F288.92462158203125
F165.79360961914062
tp1712
a(F267.4754638671875
F168.37370300292969
tp1713
a(F267.4754638671875
F168.37370300292969
tp1714
a(F268.11166381835938
F168.56785583496094
tp1715
a(F267.90792846679688
F168.437255859375
tp1716
a(F268.09844970703125
F168.33209228515625
tp1717
a(F288.7799072265625
F165.84706115722656
tp1718
a(F268.02462768554688
F168.54934692382812
tp1719
a(F267.83670043945312
F168.53421020507812
tp1720
a(F69.040443420410156
F163.73004150390625
tp1721
a(F268.43112182617188
F168.71612548828125
tp1722
a(F268.13836669921875
F168.66354370117188
tp1723
a(F267.89492797851562
F168.44631958007812
tp1724
a(F288.78411865234375
F165.92637634277344
tp1725
a(F267.8863525390625
F168.52482604980469
tp1726
a(F268.0762939453125
F168.62986755371094
tp1727
a(F288.89935302734375
F165.77947998046875
tp1728
a(F267.6937255859375
F168.33192443847656
tp1729
a(F267.5816650390625
F168.29112243652344
tp1730
a(F267.87185668945312
F168.20259094238281
tp1731
a(F267.90005493164062
F168.44973754882812
tp1732
a(F267.95245361328125
F168.64616394042969
tp1733
a(F267.94476318359375
F168.58686828613281
tp1734
a(F267.86273193359375
F168.57353210449219
tp1735
a(F267.74880981445312
F168.56645202636719
tp1736
a(F267.59234619140625
F168.560546875
tp1737
a(F267.860107421875
F168.32843017578125
tp1738
a(F267.73165893554688
F168.32972717285156
tp1739
a(F267.68414306640625
F168.22517395019531
tp1740
a(F267.92721557617188
F168.55882263183594
tp1741
a(F267.93881225585938
F168.52589416503906
tp1742
a(F267.92337036132812
F168.61723327636719
tp1743
a(F268.31137084960938
F168.84812927246094
tp1744
a(F268.30142211914062
F168.65409851074219
tp1745
a(F268.4207763671875
F168.70246887207031
tp1746
a(F268.42514038085938
F168.70741271972656
tp1747
a(F288.98825073242188
F165.94595336914062
tp1748
a(F268.23831176757812
F168.67262268066406
tp1749
a(F69.049774169921875
F163.73370361328125
tp1750
a(F289.16461181640625
F165.84136962890625
tp1751
a(F289.08462524414062
F165.84501647949219
tp1752
a(F289.00357055664062
F165.88563537597656
tp1753
a(F268.23410034179688
F168.63105773925781
tp1754
a(F288.8492431640625
F165.88710021972656
tp1755
a(F267.71817016601562
F168.47151184082031
tp1756
a(F267.79702758789062
F168.39646911621094
tp1757
a(F267.806884765625
F168.33657836914062
tp1758
a(F267.89837646484375
F168.32073974609375
tp1759
a(F268.12612915039062
F168.53738403320312
tp1760
a(F268.12973022460938
F168.54380798339844
tp1761
a(F267.86825561523438
F168.36602783203125
tp1762
a(F268.00570678710938
F168.44535827636719
tp1763
a(F268.1202392578125
F168.54400634765625
tp1764
a(F267.9713134765625
F168.45852661132812
tp1765
a(F268.01812744140625
F168.44091796875
tp1766
a(F289.01943969726562
F165.85000610351562
tp1767
a(F267.76712036132812
F168.53108215332031
tp1768
a(F268.43685913085938
F168.71249389648438
tp1769
a(F268.35162353515625
F168.65118408203125
tp1770
a(F268.1558837890625
F168.40423583984375
tp1771
a(F1703.5894775390625
F213.419189453125
tp1772
a(F1703.4764404296875
F213.44757080078125
tp1773
a(F267.91000366210938
F168.62068176269531
tp1774
a(F267.9027099609375
F168.52348327636719
tp1775
a(F268.28158569335938
F168.58714294433594
tp1776
a(F268.27139282226562
F168.60816955566406
tp1777
a(F268.26437377929688
F168.57252502441406
tp1778
a(F268.3470458984375
F168.669189453125
tp1779
a(F267.92947387695312
F168.46099853515625
tp1780
a(F268.2117919921875
F168.45440673828125
tp1781
a(F268.245849609375
F168.63145446777344
tp1782
a(F268.45907592773438
F168.622314453125
tp1783
a(F267.90609741210938
F168.37446594238281
tp1784
a(F267.90292358398438
F168.38449096679688
tp1785
a(F267.76693725585938
F168.35523986816406
tp1786
a(F267.914794921875
F168.51788330078125
tp1787
a(F267.98587036132812
F168.44023132324219
tp1788
a(F1703.2584228515625
F213.41606140136719
tp1789
a(F267.86312866210938
F168.39418029785156
tp1790
a(F267.71548461914062
F168.5513916015625
tp1791
a(F267.76885986328125
F168.41897583007812
tp1792
a(F288.9996337890625
F165.87663269042969
tp1793
a(F421.53103637695312
F479.92251586914062
tp1794
a(F268.11074829101562
F168.40058898925781
tp1795
a(F288.88504028320312
F165.78367614746094
tp1796
a(F268.0196533203125
F168.47222900390625
tp1797
a(F268.15835571289062
F168.52314758300781
tp1798
a(F267.44073486328125
F168.42341613769531
tp1799
a(F288.87973022460938
F165.72207641601562
tp1800
a(F288.727783203125
F165.74415588378906
tp1801
a(F328.9512939453125
F477.24774169921875
tp1802
a(F268.17495727539062
F168.58589172363281
tp1803
a(F267.9901123046875
F168.5284423828125
tp1804
a(F267.82611083984375
F168.40644836425781
tp1805
a(F288.8543701171875
F165.85026550292969
tp1806
a(F78.3590087890625
F156.471923828125
tp1807
a(F236.34988403320312
F228.20132446289062
tp1808
a(F686.85418701171875
F217.86518859863281
tp1809
a(F303.557861328125
F387.39862060546875
tp1810
a(F268.08840942382812
F168.49029541015625
tp1811
a(F287.49307250976562
F386.3900146484375
tp1812
a(F255.03199768066406
F390.54837036132812
tp1813
a(F267.82687377929688
F168.37248229980469
tp1814
a.