(lp1
(F1621.871337890625
F436.414306640625
tp2
a(F1617.7862548828125
F459.38360595703125
tp3
a(F1835.873046875
F240.11210632324219
tp4
a(F1812.2386474609375
F240.62525939941406
tp5
a(F1625.386962890625
F211.58345031738281
tp6
a(F1623.1568603515625
F413.90341186523438
tp7
a(F1812.303955078125
F240.67913818359375
tp8
a(F1623.3524169921875
F413.9971923828125
tp9
a(F1628.2545166015625
F463.01605224609375
tp10
a(F1812.49609375
F240.77851867675781
tp11
a(F1623.227294921875
F413.94232177734375
tp12
a(F1623.1466064453125
F413.8565673828125
tp13
a(F1623.0992431640625
F413.90219116210938
tp14
a(F1628.2178955078125
F463.19976806640625
tp15
a(F1623.12451171875
F413.91976928710938
tp16
a(F1623.26513671875
F413.97430419921875
tp17
a(F1627.7169189453125
F463.326416015625
tp18
a(F1835.86865234375
F240.00552368164062
tp19
a(F1628.12890625
F463.3553466796875
tp20
a(F1628.0245361328125
F463.49658203125
tp21
a(F1617.7889404296875
F459.33309936523438
tp22
a(F1765.3963623046875
F95.437461853027344
tp23
a(F1628.0631103515625
F463.22216796875
tp24
a(F1628.3238525390625
F463.24581909179688
tp25
a(F1844.421142578125
F243.64717102050781
tp26
a(F1622.680419921875
F413.96066284179688
tp27
a(F1622.4796142578125
F413.79190063476562
tp28
a(F1628.165771484375
F463.00973510742188
tp29
a(F1627.7120361328125
F463.542236328125
tp30
a(F1617.77001953125
F459.44384765625
tp31
a(F1617.77197265625
F459.39306640625
tp32
a(F1605.7239990234375
F221.41249084472656
tp33
a(F1627.7191162109375
F463.15606689453125
tp34
a(F1627.8817138671875
F463.23733520507812
tp35
a(F1628.0980224609375
F463.01687622070312
tp36
a(F1628.1654052734375
F463.0994873046875
tp37
a(F1844.3245849609375
F243.63664245605469
tp38
a(F1628.0462646484375
F463.13943481445312
tp39
a(F1628.1324462890625
F463.04568481445312
tp40
a(F1628.090576171875
F463.31503295898438
tp41
a(F1628.1220703125
F463.17489624023438
tp42
a(F1628.0440673828125
F463.2969970703125
tp43
a(F1755.921142578125
F108.47797393798828
tp44
a(F1628.10400390625
F463.0760498046875
tp45
a(F1755.888427734375
F108.47362518310547
tp46
a(F1628.2161865234375
F463.06423950195312
tp47
a(F1628.202880859375
F463.17800903320312
tp48
a(F1628.16748046875
F463.0301513671875
tp49
a(F1622.9307861328125
F413.89935302734375
tp50
a(F1628.208251953125
F463.10336303710938
tp51
a(F1777.315673828125
F113.52090454101562
tp52
a(F1623.29345703125
F413.83221435546875
tp53
a(F1617.600830078125
F459.538818359375
tp54
a(F1617.6441650390625
F459.51571655273438
tp55
a(F1628.136962890625
F415.74533081054688
tp56
a(F1623.2208251953125
F413.31954956054688
tp57
a(F1628.30322265625
F463.25274658203125
tp58
a(F1623.22265625
F413.23895263671875
tp59
a(F1617.76025390625
F459.39593505859375
tp60
a(F1625.26904296875
F406.82028198242188
tp61
a(F1622.1236572265625
F421.96917724609375
tp62
a(F1622.60546875
F421.90475463867188
tp63
a(F1629.0638427734375
F416.04168701171875
tp64
a(F1629.1234130859375
F416.11636352539062
tp65
a(F1629.1463623046875
F416.04904174804688
tp66
a(F1629.1463623046875
F416.04904174804688
tp67
a(F1626.1654052734375
F406.81582641601562
tp68
a(F1629.138427734375
F416.01593017578125
tp69
a(F1622.1121826171875
F422.13143920898438
tp70
a(F1629.1474609375
F415.8875732421875
tp71
a(F1629.1474609375
F415.8875732421875
tp72
a(F1812.3389892578125
F240.66838073730469
tp73
a(F1629.283447265625
F415.99545288085938
tp74
a(F1629.283447265625
F415.99545288085938
tp75
a(F1622.08740234375
F422.39453125
tp76
a(F1629.0885009765625
F415.93399047851562
tp77
a(F1628.896240234375
F416.025390625
tp78
a(F1622.3760986328125
F422.30337524414062
tp79
a(F1617.81787109375
F459.30661010742188
tp80
a(F1628.857177734375
F416.04678344726562
tp81
a(F1622.108642578125
F422.2071533203125
tp82
a(F1628.8214111328125
F416.08114624023438
tp83
a(F1628.8214111328125
F416.08114624023438
tp84
a(F1622.1680908203125
F422.105224609375
tp85
a(F1627.997314453125
F463.27804565429688
tp86
a(F1628.842041015625
F416.08126831054688
tp87
a(F1621.8861083984375
F422.291015625
tp88
a(F1621.7724609375
F422.236083984375
tp89
a(F1628.4666748046875
F416.06936645507812
tp90
a(F1617.7579345703125
F459.3587646484375
tp91
a(F1621.9857177734375
F422.23507690429688
tp92
a(F1844.4268798828125
F243.71281433105469
tp93
a(F1844.4268798828125
F243.71281433105469
tp94
a(F1628.03662109375
F416.01626586914062
tp95
a(F1623.0853271484375
F413.75515747070312
tp96
a(F1628.107177734375
F415.9542236328125
tp97
a(F1835.6962890625
F239.92257690429688
tp98
a(F1628.000732421875
F415.9837646484375
tp99
a(F1622.9927978515625
F413.87432861328125
tp100
a(F1628.0517578125
F463.61907958984375
tp101
a(F1627.452880859375
F463.00503540039062
tp102
a(F1605.8603515625
F220.80874633789062
tp103
a(F1628.09716796875
F463.30960083007812
tp104
a(F1627.9384765625
F463.666259765625
tp105
a(F1627.4510498046875
F463.36334228515625
tp106
a(F1617.715576171875
F459.4747314453125
tp107
a(F1621.345458984375
F436.44149780273438
tp108
a(F1627.864501953125
F463.04461669921875
tp109
a(F1621.241943359375
F435.9151611328125
tp110
a(F1627.905029296875
F463.07852172851562
tp111
a(F1627.8663330078125
F463.53591918945312
tp112
a(F1627.9193115234375
F463.52728271484375
tp113
a(F1627.8372802734375
F463.188232421875
tp114
a(F1628.1923828125
F463.16128540039062
tp115
a(F1835.815673828125
F240.14620971679688
tp116
a(F1628.211669921875
F463.28118896484375
tp117
a(F1628.26416015625
F463.10824584960938
tp118
a(F1627.890380859375
F463.36175537109375
tp119
a(F1627.9552001953125
F463.093017578125
tp120
a(F1627.76904296875
F463.53939819335938
tp121
a(F1622.8623046875
F413.86135864257812
tp122
a(F1628.1416015625
F463.39956665039062
tp123
a(F1624.365478515625
F418.61920166015625
tp124
a(F1623.0631103515625
F413.90335083007812
tp125
a(F1628.26806640625
F463.220703125
tp126
a(F1616.4482421875
F444.63302612304688
tp127
a(F1627.9354248046875
F463.76620483398438
tp128
a(F1624.4000244140625
F418.73086547851562
tp129
a(F1627.6927490234375
F463.24691772460938
tp130
a(F1624.4114990234375
F418.70571899414062
tp131
a(F1625.2318115234375
F211.65205383300781
tp132
a(F1625.2318115234375
F211.65205383300781
tp133
a(F1623.120849609375
F413.859375
tp134
a(F1627.666748046875
F463.49728393554688
tp135
a(F1623.1822509765625
F413.94314575195312
tp136
a(F1622.79248046875
F413.72775268554688
tp137
a(F1628.070556640625
F463.8277587890625
tp138
a(F1622.9400634765625
F413.7611083984375
tp139
a(F1627.69287109375
F463.52963256835938
tp140
a(F1627.8203125
F463.78448486328125
tp141
a(F1627.73486328125
F463.35760498046875
tp142
a(F1627.561279296875
F463.31060791015625
tp143
a(F1844.312255859375
F243.63063049316406
tp144
a(F1623.927490234375
F418.60543823242188
tp145
a(F1628.04833984375
F463.24853515625
tp146
a(F1628.0233154296875
F463.03704833984375
tp147
a(F1627.9647216796875
F463.7650146484375
tp148
a(F1844.1822509765625
F243.69117736816406
tp149
a(F1621.263671875
F436.49600219726562
tp150
a(F1628.0062255859375
F463.17837524414062
tp151
a(F1628.024658203125
F463.54696655273438
tp152
a(F1621.3306884765625
F436.38626098632812
tp153
a(F1621.3306884765625
F436.38626098632812
tp154
a(F1621.2720947265625
F436.36883544921875
tp155
a(F1622.5562744140625
F413.7120361328125
tp156
a(F1835.859130859375
F239.98680114746094
tp157
a(F1621.27685546875
F436.08746337890625
tp158
a(F1621.27685546875
F436.08746337890625
tp159
a(F1628.3167724609375
F463.44580078125
tp160
a(F1628.1287841796875
F463.3577880859375
tp161
a(F1788.433837890625
F284.18701171875
tp162
a(F1621.3255615234375
F436.4112548828125
tp163
a(F1788.329345703125
F284.11392211914062
tp164
a(F1835.9317626953125
F240.05767822265625
tp165
a(F1625.542724609375
F211.48818969726562
tp166
a(F1621.43017578125
F436.3394775390625
tp167
a(F1844.177734375
F243.73838806152344
tp168
a(F1844.0947265625
F243.77320861816406
tp169
a(F1621.39404296875
F436.31182861328125
tp170
a(F1622.4849853515625
F413.86428833007812
tp171
a(F1844.34130859375
F243.73464965820312
tp172
a(F1622.345947265625
F413.74749755859375
tp173
a(F1623.901611328125
F418.67990112304688
tp174
a(F1844.39794921875
F243.7012939453125
tp175
a(F1628.0635986328125
F463.25241088867188
tp176
a(F1627.5545654296875
F463.56695556640625
tp177
a(F1622.4405517578125
F413.84109497070312
tp178
a(F1627.58984375
F463.55010986328125
tp179
a(F1617.7652587890625
F459.3458251953125
tp180
a(F1627.794189453125
F463.54583740234375
tp181
a(F1627.9388427734375
F463.00363159179688
tp182
a(F1621.247314453125
F436.49862670898438
tp183
a(F1621.2919921875
F436.38656616210938
tp184
a(F1622.3243408203125
F413.82150268554688
tp185
a(F1622.1710205078125
F413.73898315429688
tp186
a(F1621.329345703125
F436.36697387695312
tp187
a(F1621.29541015625
F435.95266723632812
tp188
a(F1622.3885498046875
F413.8505859375
tp189
a(F1622.2322998046875
F413.757080078125
tp190
a(F1627.60986328125
F463.55926513671875
tp191
a(F1739.2076416015625
F281.79251098632812
tp192
a(F1739.2076416015625
F281.79251098632812
tp193
a(F1621.359130859375
F436.32064819335938
tp194
a(F1623.0352783203125
F414.30172729492188
tp195
a(F1621.3250732421875
F436.1973876953125
tp196
a(F1624.1334228515625
F406.15866088867188
tp197
a(F1625.4652099609375
F211.44357299804688
tp198
a(F1620.2916259765625
F422.09881591796875
tp199
a(F1624.2908935546875
F405.89642333984375
tp200
a(F1624.30908203125
F406.13107299804688
tp201
a(F1624.3240966796875
F405.75332641601562
tp202
a(F1624.2593994140625
F405.93423461914062
tp203
a(F1835.6888427734375
F240.06829833984375
tp204
a(F1624.1614990234375
F406.169189453125
tp205
a(F1627.425048828125
F463.18853759765625
tp206
a(F1620.1807861328125
F422.109619140625
tp207
a(F1835.7708740234375
F240.12580871582031
tp208
a(F1623.1929931640625
F414.3612060546875
tp209
a(F1621.43505859375
F436.2052001953125
tp210
a(F1836.1002197265625
F240.04496765136719
tp211
a(F1836.1455078125
F240.05860900878906
tp212
a(F1836.0120849609375
F240.01223754882812
tp213
a(F1812.498291015625
F240.7589111328125
tp214
a(F1622.396728515625
F413.38775634765625
tp215
a(F1622.3536376953125
F413.31048583984375
tp216
a(F1620.0123291015625
F435.94903564453125
tp217
a(F1622.052490234375
F413.05938720703125
tp218
a(F1621.9107666015625
F413.03057861328125
tp219
a(F1619.1497802734375
F435.347900390625
tp220
a(F1619.7939453125
F439.44580078125
tp221
a(F1618.187255859375
F412.8701171875
tp222
a(F1614.1422119140625
F428.09793090820312
tp223
a(F1812.30712890625
F240.82044982910156
tp224
a(F1844.1123046875
F243.69918823242188
tp225
a(F1610.0615234375
F435.8172607421875
tp226
a(F1608.689208984375
F435.8636474609375
tp227
a(F1609.5814208984375
F413.23269653320312
tp228
a(F1607.6651611328125
F403.96780395507812
tp229
a(F1836.598876953125
F240.01600646972656
tp230
a(F1606.117919921875
F411.11843872070312
tp231
a(F1603.7066650390625
F437.50918579101562
tp232
a(F1605.629150390625
F410.93746948242188
tp233
a(F1602.8897705078125
F432.86965942382812
tp234
a(F1604.9300537109375
F403.2083740234375
tp235
a(F1625.4290771484375
F211.44148254394531
tp236
a(F1625.9246826171875
F211.31718444824219
tp237
a(F1625.56591796875
F211.36598205566406
tp238
a(F1598.55810546875
F430.39215087890625
tp239
a(F1600.237548828125
F444.48858642578125
tp240
a(F1599.5828857421875
F444.4544677734375
tp241
a(F1864.6116943359375
F292.95703125
tp242
a(F1597.3900146484375
F444.65069580078125
tp243
a(F1864.2208251953125
F293.10858154296875
tp244
a(F1593.24365234375
F420.233154296875
tp245
a(F1836.7557373046875
F239.83001708984375
tp246
a(F1903.437744140625
F306.38861083984375
tp247
a(F1589.943115234375
F426.44265747070312
tp248
a(F1589.943115234375
F426.44265747070312
tp249
a(F1586.6025390625
F425.58413696289062
tp250
a(F1585.6683349609375
F425.83428955078125
tp251
a(F1585.035888671875
F426.00765991210938
tp252
a(F1577.949951171875
F429.58859252929688
tp253
a(F1578.4442138671875
F396.03768920898438
tp254
a(F1567.4031982421875
F422.78598022460938
tp255
a(F1558.9903564453125
F409.95477294921875
tp256
a(F1844.4044189453125
F243.62342834472656
tp257
a(F1836.34033203125
F239.94255065917969
tp258
a(F1812.1468505859375
F240.70870971679688
tp259
a(F1812.048583984375
F240.80305480957031
tp260
a(F1812.5911865234375
F240.6036376953125
tp261
a(F1844.518798828125
F243.52757263183594
tp262
a(F1835.746826171875
F240.05189514160156
tp263
a(F1844.1053466796875
F243.71195983886719
tp264
a(F1835.8565673828125
F240.11912536621094
tp265
a(F1844.1173095703125
F243.71800231933594
tp266
a(F1835.8277587890625
F240.0516357421875
tp267
a(F1844.223388671875
F243.64863586425781
tp268
a(F1625.3812255859375
F211.52873229980469
tp269
a(F1835.7237548828125
F239.918701171875
tp270
a(F1844.1787109375
F243.82087707519531
tp271
a(F1844.1204833984375
F243.66384887695312
tp272
a(F1723.3746337890625
F283.71682739257812
tp273
a(F1625.3135986328125
F211.56425476074219
tp274
a(F1723.4124755859375
F283.7080078125
tp275
a(F1728.12841796875
F286.607177734375
tp276
a(F1738.087646484375
F287.12588500976562
tp277
a(F1856.5635986328125
F297.22247314453125
tp278
a(F1856.80224609375
F296.9688720703125
tp279
a(F1727.9627685546875
F286.552978515625
tp280
a(F1728.206298828125
F286.585205078125
tp281
a(F1856.6904296875
F297.04241943359375
tp282
a(F1728.20166015625
F286.60183715820312
tp283
a(F1856.61376953125
F297.11331176757812
tp284
a(F1844.09130859375
F243.82330322265625
tp285
a(F1844.0654296875
F243.81562805175781
tp286
a(F1835.8265380859375
F240.07438659667969
tp287
a(F1728.395751953125
F286.68399047851562
tp288
a(F1727.8740234375
F286.57357788085938
tp289
a(F1835.9964599609375
F240.04182434082031
tp290
a(F1835.846435546875
F240.13893127441406
tp291
a(F1812.4697265625
F240.66496276855469
tp292
a(F1835.8953857421875
F240.0355224609375
tp293
a(F1812.3846435546875
F240.6695556640625
tp294
a(F1728.056396484375
F286.55642700195312
tp295
a(F1812.1087646484375
F240.65171813964844
tp296
a(F1714.9027099609375
F282.83331298828125
tp297
a(F1728.1502685546875
F286.63983154296875
tp298
a(F1835.7183837890625
F239.94259643554688
tp299
a(F1727.953857421875
F286.54791259765625
tp300
a(F1844.10888671875
F243.75714111328125
tp301
a(F1856.901123046875
F303.26016235351562
tp302
a(F1835.5806884765625
F240.056884765625
tp303
a(F1835.803466796875
F240.13191223144531
tp304
a(F1728.3406982421875
F286.60311889648438
tp305
a(F1812.3597412109375
F240.68583679199219
tp306
a(F1755.91064453125
F108.43294525146484
tp307
a(F1847.6607666015625
F299.96072387695312
tp308
a(F1678.0941162109375
F282.84518432617188
tp309
a(F1731.1883544921875
F741.3050537109375
tp310
a(F1638.37353515625
F278.31771850585938
tp311
a(F1729.2261962890625
F738.984375
tp312
a(F1812.4854736328125
F240.69223022460938
tp313
a(F1755.794189453125
F108.39248657226562
tp314
a(F1715.7120361328125
F730.4737548828125
tp315
a(F1715.467041015625
F725.90899658203125
tp316
a(F1726.185302734375
F718.95526123046875
tp317
a(F1839.529296875
F557.03466796875
tp318
a(F1716.154541015625
F707.248291015625
tp319
a(F1713.7030029296875
F706.10028076171875
tp320
a(F1844.1585693359375
F243.6875
tp321
a(F1708.9307861328125
F689.606689453125
tp322
a(F1708.4075927734375
F688.6068115234375
tp323
a(F1814.5618896484375
F509.11056518554688
tp324
a(F1707.49658203125
F686.79388427734375
tp325
a(F1812.344482421875
F240.70477294921875
tp326
a(F1812.343505859375
F240.70565795898438
tp327
a(F1844.0517578125
F243.79719543457031
tp328
a(F1703.6536865234375
F679.2510986328125
tp329
a(F1694.1807861328125
F720.338134765625
tp330
a(F1702.6209716796875
F678.84686279296875
tp331
a(F1702.3262939453125
F678.18927001953125
tp332
a(F1706.94287109375
F701.26739501953125
tp333
a(F1702.251220703125
F676.2061767578125
tp334
a(F1702.6856689453125
F671.254150390625
tp335
a(F1812.080078125
F240.60067749023438
tp336
a(F1688.1700439453125
F657.00115966796875
tp337
a(F1835.7491455078125
F240.01025390625
tp338
a(F1844.1793212890625
F243.65782165527344
tp339
a(F1692.9334716796875
F652.43695068359375
tp340
a(F1812.57421875
F240.70614624023438
tp341
a(F1692.443359375
F642.941650390625
tp342
a(F1844.23046875
F243.73283386230469
tp343
a(F1844.4007568359375
F243.69256591796875
tp344
a(F1682.550537109375
F610.2396240234375
tp345
a(F1682.550537109375
F610.2396240234375
tp346
a(F1625.3388671875
F211.56304931640625
tp347
a(F1812.275634765625
F240.64613342285156
tp348
a(F1812.3751220703125
F240.71522521972656
tp349
a(F1812.36376953125
F240.71208190917969
tp350
a(F1755.837646484375
F108.36177825927734
tp351
a(F1812.320068359375
F240.65725708007812
tp352
a(F1811.9742431640625
F240.53367614746094
tp353
a(F1835.569580078125
F240.00094604492188
tp354
a(F1625.533935546875
F211.57339477539062
tp355
a(F1677.1790771484375
F279.40740966796875
tp356
a(F1812.0416259765625
F240.62944030761719
tp357
a(F1625.763427734375
F211.21652221679688
tp358
a(F1812.161865234375
F240.70292663574219
tp359
a(F1835.9356689453125
F240.02912902832031
tp360
a(F1835.8438720703125
F240.06678771972656
tp361
a(F1893.197021484375
F486.25479125976562
tp362
a(F1844.226318359375
F243.71600341796875
tp363
a(F1625.5081787109375
F211.45404052734375
tp364
a(F1625.5081787109375
F211.45404052734375
tp365
a(F1844.3712158203125
F243.634521484375
tp366
a(F1676.2830810546875
F497.08212280273438
tp367
a(F1583.236572265625
F269.35971069335938
tp368
a(F1844.1558837890625
F243.69195556640625
tp369
a(F1751.09033203125
F225.25032043457031
tp370
a(F1844.2938232421875
F243.6185302734375
tp371
a(F1844.16064453125
F243.74929809570312
tp372
a(F1755.7730712890625
F108.38987731933594
tp373
a(F1755.8077392578125
F108.49909973144531
tp374
a(F1844.2813720703125
F243.71855163574219
tp375
a(F1583.1324462890625
F269.36248779296875
tp376
a(F1835.7689208984375
F240.09907531738281
tp377
a(F1844.0076904296875
F243.7933349609375
tp378
a(F1812.22509765625
F240.64703369140625
tp379
a(F1835.8314208984375
F240.06721496582031
tp380
a(F1625.5596923828125
F211.56417846679688
tp381
a(F1625.2208251953125
F211.66168212890625
tp382
a(F1835.903076171875
F240.05567932128906
tp383
a(F1625.29296875
F211.75361633300781
tp384
a(F1845.0703125
F243.52554321289062
tp385
a(F1888.61767578125
F552.40869140625
tp386
a(F1880.4383544921875
F568.591552734375
tp387
a(F1884.4376220703125
F548.10748291015625
tp388
a(F1883.241455078125
F548.993896484375
tp389
a(F1882.33544921875
F550.85107421875
tp390
a(F1877.8853759765625
F573.5230712890625
tp391
a(F1812.658203125
F240.53160095214844
tp392
a(F1870.4473876953125
F566.84918212890625
tp393
a(F1864.926513671875
F585.2662353515625
tp394
a(F1873.116455078125
F566.21258544921875
tp395
a(F1794.0479736328125
F356.73013305664062
tp396
a(F1877.7413330078125
F560.33575439453125
tp397
a(F1768.2318115234375
F378.85433959960938
tp398
a(F1768.2318115234375
F378.85433959960938
tp399
a(F1896.904541015625
F548.4075927734375
tp400
a(F1835.89697265625
F240.04661560058594
tp401
a(F1691.2401123046875
F510.77447509765625
tp402
a(F1844.62939453125
F377.17440795898438
tp403
a(F1498.6229248046875
F405.06082153320312
tp404
a(F1632.005859375
F278.11593627929688
tp405
a(F1843.8028564453125
F243.77218627929688
tp406
a(F1844.4010009765625
F243.57981872558594
tp407
a(F1844.390869140625
F243.67671203613281
tp408
a(F1835.7822265625
F239.96211242675781
tp409
a(F1881.98681640625
F532.9974365234375
tp410
a(F1835.6527099609375
F239.93560791015625
tp411
a(F1812.244384765625
F240.420166015625
tp412
a(F1812.64013671875
F240.66964721679688
tp413
a(F1812.43017578125
F240.71240234375
tp414
a(F1844.4720458984375
F243.62925720214844
tp415
a(F1752.0848388671875
F225.31930541992188
tp416
a(F1812.5618896484375
F240.69874572753906
tp417
a(F1844.3958740234375
F243.77255249023438
tp418
a(F1812.3809814453125
F240.64244079589844
tp419
a(F1835.84619140625
F239.94776916503906
tp420
a(F1836.0440673828125
F240.01129150390625
tp421
a(F1844.419921875
F243.68576049804688
tp422
a(F1794.8592529296875
F289.9781494140625
tp423
a(F1812.4630126953125
F240.69340515136719
tp424
a(F1812.431884765625
F240.61563110351562
tp425
a(F1835.9141845703125
F239.99810791015625
tp426
a(F1835.92236328125
F240.00146484375
tp427
a(F1844.1583251953125
F243.69821166992188
tp428
a(F1844.1788330078125
F243.67575073242188
tp429
a(F1811.92626953125
F240.67530822753906
tp430
a(F1732.27001953125
F290.11648559570312
tp431
a(F1844.0377197265625
F243.76069641113281
tp432
a(F1812.5416259765625
F240.56538391113281
tp433
a(F1835.873779296875
F240.05502319335938
tp434
a(F1844.4351806640625
F243.60150146484375
tp435
a(F1843.856689453125
F243.83453369140625
tp436
a(F1812.1075439453125
F240.66633605957031
tp437
a(F1843.78955078125
F243.81744384765625
tp438
a(F1843.78955078125
F243.81744384765625
tp439
a(F1812.012451171875
F240.6634521484375
tp440
a(F1843.888916015625
F243.82211303710938
tp441
a(F1812.2694091796875
F240.860595703125
tp442
a(F1812.277587890625
F240.70906066894531
tp443
a(F1811.9666748046875
F240.74447631835938
tp444
a(F1812.3731689453125
F240.67549133300781
tp445
a(F1811.8824462890625
F240.51480102539062
tp446
a(F1835.74560546875
F239.91806030273438
tp447
a(F1844.2178955078125
F243.581298828125
tp448
a(F1660.074951171875
F277.05221557617188
tp449
a(F1812.0662841796875
F240.67222595214844
tp450
a(F1844.103759765625
F243.74526977539062
tp451
a(F1756.0380859375
F108.42659759521484
tp452
a(F1812.423828125
F240.8504638671875
tp453
a(F1835.5614013671875
F240.08920288085938
tp454
a(F1625.2919921875
F211.53182983398438
tp455
a(F1835.6900634765625
F240.13397216796875
tp456
a(F1625.376953125
F211.52079772949219
tp457
a(F1844.0845947265625
F243.61824035644531
tp458
a(F1844.0845947265625
F243.61824035644531
tp459
a(F1812.1383056640625
F240.74195861816406
tp460
a(F1835.5272216796875
F240.01791381835938
tp461
a(F1815.1009521484375
F296.31167602539062
tp462
a(F1567.9132080078125
F266.8902587890625
tp463
a(F1765.876708984375
F284.35006713867188
tp464
a(F1844.087646484375
F243.80885314941406
tp465
a(F1844.156005859375
F243.71829223632812
tp466
a(F1811.9791259765625
F240.64643859863281
tp467
a(F1812.008544921875
F240.6527099609375
tp468
a(F1835.7484130859375
F240.04148864746094
tp469
a(F1844.0452880859375
F243.75888061523438
tp470
a(F1812.1456298828125
F240.75241088867188
tp471
a(F1812.11669921875
F240.68836975097656
tp472
a(F1844.0531005859375
F243.71994018554688
tp473
a(F1812.21875
F240.8272705078125
tp474
a(F1844.0833740234375
F243.77633666992188
tp475
a(F1811.8873291015625
F240.58757019042969
tp476
a(F1844.161865234375
F243.66015625
tp477
a(F1811.92041015625
F240.67866516113281
tp478
a(F1519.8623046875
F435.27639770507812
tp479
a(F1526.463134765625
F413.05703735351562
tp480
a(F1844.2591552734375
F243.72364807128906
tp481
a(F1844.1766357421875
F243.77593994140625
tp482
a(F1843.76904296875
F243.87155151367188
tp483
a(F1530.0897216796875
F427.78671264648438
tp484
a(F1843.7427978515625
F243.84341430664062
tp485
a(F1835.6202392578125
F240.01095581054688
tp486
a(F1530.0885009765625
F427.5579833984375
tp487
a(F1835.8397216796875
F240.06486511230469
tp488
a(F1530.13818359375
F427.59942626953125
tp489
a(F1530.13818359375
F427.59942626953125
tp490
a(F1530.05712890625
F427.59628295898438
tp491
a(F1530.05712890625
F427.59628295898438
tp492
a(F1835.6065673828125
F240.21592712402344
tp493
a(F1530.1146240234375
F427.63626098632812
tp494
a(F1835.57568359375
F240.18667602539062
tp495
a(F1844.1429443359375
F243.76187133789062
tp496
a(F1526.504150390625
F435.76043701171875
tp497
a(F1844.3907470703125
F243.56730651855469
tp498
a(F1526.5643310546875
F435.85464477539062
tp499
a(F1836.1239013671875
F240.01924133300781
tp500
a(F1626.1038818359375
F211.1968994140625
tp501
a(F1844.4737548828125
F243.67854309082031
tp502
a(F1812.300048828125
F240.71830749511719
tp503
a(F1534.102783203125
F420.347412109375
tp504
a(F1534.120361328125
F420.49264526367188
tp505
a(F1528.6640625
F433.54681396484375
tp506
a(F1844.487548828125
F243.55625915527344
tp507
a(F1529.49365234375
F427.68646240234375
tp508
a(F1812.5872802734375
F240.63047790527344
tp509
a(F1534.2933349609375
F420.3778076171875
tp510
a(F1529.4765625
F427.72943115234375
tp511
a(F1530.6522216796875
F414.93942260742188
tp512
a(F1530.6107177734375
F414.609375
tp513
a(F1625.50634765625
F211.38067626953125
tp514
a(F1625.331298828125
F211.45120239257812
tp515
a(F1530.7003173828125
F414.3076171875
tp516
a(F1835.887451171875
F239.87031555175781
tp517
a(F1844.4462890625
F243.67306518554688
tp518
a(F1844.463134765625
F243.69099426269531
tp519
a(F1525.427001953125
F435.94216918945312
tp520
a(F1844.1583251953125
F243.74069213867188
tp521
a(F1835.8941650390625
F240.04277038574219
tp522
a(F1843.9169921875
F243.80143737792969
tp523
a(F1843.8067626953125
F243.82635498046875
tp524
a(F1844.3282470703125
F243.58551025390625
tp525
a(F1844.0372314453125
F243.77142333984375
tp526
a(F1812.5574951171875
F240.51780700683594
tp527
a(F1835.870361328125
F240.19180297851562
tp528
a(F1812.7332763671875
F240.53193664550781
tp529
a(F1812.2694091796875
F240.63946533203125
tp530
a(F1836.8851318359375
F239.7635498046875
tp531
a(F1625.9239501953125
F211.22085571289062
tp532
a(F1812.920654296875
F240.12422180175781
tp533
a(F1521.9796142578125
F632.4693603515625
tp534
a(F1545.565185546875
F650.89141845703125
tp535
a(F1844.263916015625
F243.629638671875
tp536
a(F1812.002197265625
F240.86660766601562
tp537
a(F1811.890869140625
F240.85289001464844
tp538
a(F1756.669921875
F281.29940795898438
tp539
a(F1844.3173828125
F243.65180969238281
tp540
a(F1812.7005615234375
F240.37187194824219
tp541
a(F1835.7777099609375
F239.96586608886719
tp542
a(F1844.3564453125
F243.69486999511719
tp543
a(F1835.9029541015625
F239.95722961425781
tp544
a(F1844.3468017578125
F243.64656066894531
tp545
a(F1812.4110107421875
F240.656005859375
tp546
a(F1835.7220458984375
F239.85812377929688
tp547
a(F1836.10693359375
F240.00483703613281
tp548
a(F1835.9630126953125
F239.98915100097656
tp549
a(F1844.4947509765625
F243.61128234863281
tp550
a(F1835.7957763671875
F240.06494140625
tp551
a(F1835.9573974609375
F239.94122314453125
tp552
a(F1729.992431640625
F291.18637084960938
tp553
a(F1730.43212890625
F291.7762451171875
tp554
a(F1558.0751953125
F266.44619750976562
tp555
a(F1625.2713623046875
F211.35806274414062
tp556
a(F1625.2713623046875
F211.35806274414062
tp557
a(F1835.9141845703125
F239.90545654296875
tp558
a(F1625.2657470703125
F211.3785400390625
tp559
a(F1835.7840576171875
F239.99665832519531
tp560
a(F1836.0955810546875
F239.95881652832031
tp561
a(F1836.099609375
F239.98660278320312
tp562
a(F1835.9830322265625
F239.97677612304688
tp563
a(F1812.8116455078125
F240.63539123535156
tp564
a(F1812.5306396484375
F240.63441467285156
tp565
a(F1844.2315673828125
F243.64059448242188
tp566
a(F1835.7017822265625
F240.08642578125
tp567
a(F1812.0235595703125
F240.59159851074219
tp568
a(F1836.1563720703125
F296.27105712890625
tp569
a(F1835.9840087890625
F296.460693359375
tp570
a(F1879.5733642578125
F243.99443054199219
tp571
a(F1625.4891357421875
F211.46685791015625
tp572
a(F1625.497314453125
F211.37687683105469
tp573
a(F1526.1181640625
F450.70230102539062
tp574
a(F1519.7989501953125
F485.93795776367188
tp575
a(F1519.89990234375
F486.38742065429688
tp576
a(F1528.92529296875
F450.34100341796875
tp577
a(F1533.3035888671875
F450.85903930664062
tp578
a(F1535.73046875
F450.71722412109375
tp579
a(F1842.322021484375
F292.52963256835938
tp580
a(F1546.1787109375
F452.17755126953125
tp581
a(F1551.0635986328125
F477.79953002929688
tp582
a(F1565.5992431640625
F453.29812622070312
tp583
a(F1561.0181884765625
F478.63870239257812
tp584
a(F1559.354248046875
F493.38839721679688
tp585
a(F1569.453857421875
F454.127685546875
tp586
a(F1573.052001953125
F455.25387573242188
tp587
a(F1564.3077392578125
F490.67745971679688
tp588
a(F1581.511962890625
F455.41055297851562
tp589
a(F1588.2481689453125
F456.16366577148438
tp590
a(F1582.064208984375
F480.88092041015625
tp591
a(F1608.768310546875
F457.97113037109375
tp592
a(F1602.7386474609375
F497.9990234375
tp593
a(F1612.4512939453125
F457.82086181640625
tp594
a(F1610.7523193359375
F494.74929809570312
tp595
a(F1610.3189697265625
F499.859619140625
tp596
a(F1616.970947265625
F484.10281372070312
tp597
a(F1623.822021484375
F499.59027099609375
tp598
a(F1837.5140380859375
F239.63204956054688
tp599
a(F1629.0623779296875
F460.23065185546875
tp600
a(F1624.3909912109375
F477.37197875976562
tp601
a(F1836.85595703125
F239.83578491210938
tp602
a(F1626.197265625
F486.00604248046875
tp603
a(F1628.2218017578125
F486.47769165039062
tp604
a(F1631.3455810546875
F503.81350708007812
tp605
a(F1634.207275390625
F487.21124267578125
tp606
a(F1631.468017578125
F504.99813842773438
tp607
a(F1640.1378173828125
F450.3143310546875
tp608
a(F1645.3963623046875
F460.02569580078125
tp609
a(F1647.142822265625
F487.49777221679688
tp610
a(F1660.1239013671875
F485.28933715820312
tp611
a(F1650.5291748046875
F488.12823486328125
tp612
a(F1650.7940673828125
F460.69769287109375
tp613
a(F1647.47705078125
F503.58645629882812
tp614
a(F1647.47705078125
F503.58645629882812
tp615
a(F1657.9349365234375
F464.53671264648438
tp616
a(F1657.9349365234375
F464.53671264648438
tp617
a(F1845.1119384765625
F243.27255249023438
tp618
a(F1659.15380859375
F464.99356079101562
tp619
a(F1651.8267822265625
F504.43771362304688
tp620
a(F1651.8267822265625
F504.43771362304688
tp621
a(F1662.1627197265625
F465.49075317382812
tp622
a(F1654.3414306640625
F490.0106201171875
tp623
a(F1658.6392822265625
F462.92401123046875
tp624
a(F1669.919921875
F488.9390869140625
tp625
a(F1668.0245361328125
F466.20101928710938
tp626
a(F1836.98681640625
F239.73464965820312
tp627
a(F1660.0048828125
F490.49758911132812
tp628
a(F1669.376220703125
F466.38143920898438
tp629
a(F1663.4635009765625
F463.20205688476562
tp630
a(F1670.43359375
F466.33026123046875
tp631
a(F1836.702392578125
F239.88264465332031
tp632
a(F1848.5177001953125
F299.70443725585938
tp633
a(F1667.2935791015625
F463.99057006835938
tp634
a(F1671.6656494140625
F465.55569458007812
tp635
a(F1723.829833984375
F283.54251098632812
tp636
a(F1679.636474609375
F467.32601928710938
tp637
a(F1675.3697509765625
F465.9580078125
tp638
a(F1680.45458984375
F467.73519897460938
tp639
a(F1676.302978515625
F466.129150390625
tp640
a(F1671.5201416015625
F483.28900146484375
tp641
a(F1683.3223876953125
F468.13949584960938
tp642
a(F1686.4013671875
F468.38259887695312
tp643
a(F1684.82763671875
F493.528076171875
tp644
a(F1847.57568359375
F299.95297241210938
tp645
a(F1701.6085205078125
F470.1470947265625
tp646
a(F1702.848388671875
F470.43618774414062
tp647
a(F1697.14794921875
F496.22454833984375
tp648
a(F1697.14794921875
F496.22454833984375
tp649
a(F1706.111572265625
F471.53280639648438
tp650
a(F1707.9962158203125
F471.87103271484375
tp651
a(F1707.9962158203125
F471.87103271484375
tp652
a(F1702.2259521484375
F469.14447021484375
tp653
a(F1703.4542236328125
F469.25396728515625
tp654
a(F1698.0782470703125
F511.283447265625
tp655
a(F1698.0782470703125
F511.283447265625
tp656
a(F1704.9395751953125
F469.2496337890625
tp657
a(F1705.9669189453125
F469.36083984375
tp658
a(F1727.4591064453125
F286.66909790039062
tp659
a(F1735.0316162109375
F291.5262451171875
tp660
a(F1703.642822265625
F480.25665283203125
tp661
a(F1836.1785888671875
F239.90679931640625
tp662
a(F1847.5321044921875
F299.907470703125
tp663
a(F1720.40771484375
F517.15386962890625
tp664
a(F1720.40771484375
F517.15386962890625
tp665
a(F1728.2108154296875
F286.51416015625
tp666
a(F1726.955810546875
F481.96194458007812
tp667
a(F1729.2740478515625
F472.0184326171875
tp668
a(F1730.423828125
F472.08920288085938
tp669
a(F1739.180908203125
F474.845947265625
tp670
a(F1835.555419921875
F240.08233642578125
tp671
a(F1740.99365234375
F474.82330322265625
tp672
a(F1734.208251953125
F472.1796875
tp673
a(F1811.9083251953125
F240.90928649902344
tp674
a(F1733.967529296875
F482.71270751953125
tp675
a(F1739.63134765625
F472.81826782226562
tp676
a(F1751.0872802734375
F476.97402954101562
tp677
a(F1747.970947265625
F474.7366943359375
tp678
a(F1744.3553466796875
F514.80084228515625
tp679
a(F1746.927490234375
F485.70819091796875
tp680
a(F1751.9644775390625
F475.22171020507812
tp681
a(F1748.250244140625
F485.93011474609375
tp682
a(F1764.1373291015625
F487.89447021484375
tp683
a(F1765.14794921875
F478.03085327148438
tp684
a(F1727.824462890625
F286.5653076171875
tp685
a(F1767.2867431640625
F505.93069458007812
tp686
a(F1773.317626953125
F478.3916015625
tp687
a(F1770.8072509765625
F506.41000366210938
tp688
a(F1843.8699951171875
F243.7850341796875
tp689
a(F1778.9678955078125
F489.09490966796875
tp690
a(F1790.9666748046875
F481.90652465820312
tp691
a(F1785.1854248046875
F479.43612670898438
tp692
a(F1728.2255859375
F286.4278564453125
tp693
a(F1786.724365234375
F479.71600341796875
tp694
a(F1787.9635009765625
F480.17694091796875
tp695
a(F1788.60693359375
F480.65045166015625
tp696
a(F1787.1102294921875
F521.63909912109375
tp697
a(F1787.0694580078125
F522.41534423828125
tp698
a(F1787.649658203125
F521.8812255859375
tp699
a(F1727.664794921875
F286.57479858398438
tp700
a(F1794.4664306640625
F481.81076049804688
tp701
a(F1797.0772705078125
F483.76266479492188
tp702
a(F1727.74169921875
F286.55661010742188
tp703
a(F1794.190673828125
F507.99435424804688
tp704
a(F1799.053955078125
F488.02618408203125
tp705
a(F1800.277099609375
F483.9178466796875
tp706
a(F1723.2735595703125
F283.63397216796875
tp707
a(F1797.193603515625
F510.35174560546875
tp708
a(F1801.6060791015625
F484.04818725585938
tp709
a(F1723.566650390625
F283.5609130859375
tp710
a(F1809.16845703125
F527.70440673828125
tp711
a(F1810.0811767578125
F495.22164916992188
tp712
a(F1810.93505859375
F494.71661376953125
tp713
a(F1836.6279296875
F239.86613464355469
tp714
a(F1811.4342041015625
F526.84014892578125
tp715
a(F1811.5462646484375
F494.1553955078125
tp716
a(F1728.42138671875
F286.1904296875
tp717
a(F1625.7623291015625
F211.27337646484375
tp718
a(F1728.940185546875
F286.0819091796875
tp719
a(F1826.0335693359375
F487.51834106445312
tp720
a(F1647.667236328125
F275.64199829101562
tp721
a(F1728.9658203125
F286.12686157226562
tp722
a(F1815.3974609375
F526.75006103515625
tp723
a(F1728.4886474609375
F286.13571166992188
tp724
a(F1820.9173583984375
F489.2135009765625
tp725
a(F1728.571533203125
F286.03842163085938
tp726
a(F1821.2188720703125
F483.904052734375
tp727
a(F1728.278564453125
F286.03451538085938
tp728
a(F1816.6729736328125
F511.23147583007812
tp729
a(F1728.0595703125
F286.170166015625
tp730
a(F1812.943603515625
F240.13938903808594
tp731
a(F1728.41064453125
F286.14361572265625
tp732
a(F1836.5491943359375
F239.9429931640625
tp733
a(F1836.5797119140625
F239.91950988769531
tp734
a(F1728.597412109375
F286.16555786132812
tp735
a(F1818.5220947265625
F523.62939453125
tp736
a(F1822.9947509765625
F484.7520751953125
tp737
a(F1728.6439208984375
F286.17410278320312
tp738
a(F1824.3856201171875
F490.21405029296875
tp739
a(F1820.0277099609375
F495.31884765625
tp740
a(F1820.4361572265625
F495.1116943359375
tp741
a(F1822.827392578125
F484.84744262695312
tp742
a(F1819.285888671875
F513.78515625
tp743
a(F1813.1781005859375
F240.17164611816406
tp744
a(F1728.6029052734375
F286.152099609375
tp745
a(F1828.11474609375
F508.99169921875
tp746
a(F1819.281494140625
F513.5859375
tp747
a(F1818.7872314453125
F523.58392333984375
tp748
a(F1813.100341796875
F240.13063049316406
tp749
a(F1818.7021484375
F523.569580078125
tp750
a(F1728.3336181640625
F286.21688842773438
tp751
a(F1825.203369140625
F490.41445922851562
tp752
a(F1819.307861328125
F513.44061279296875
tp753
a(F1825.1700439453125
F490.35516357421875
tp754
a(F1824.8521728515625
F490.43759155273438
tp755
a(F1728.8712158203125
F286.1282958984375
tp756
a(F1825.18896484375
F490.36749267578125
tp757
a(F1824.065185546875
F484.90982055664062
tp758
a(F1728.9989013671875
F286.14892578125
tp759
a(F1825.1016845703125
F490.30511474609375
tp760
a(F1729.0040283203125
F286.0457763671875
tp761
a(F1836.689453125
F239.94174194335938
tp762
a(F1728.4166259765625
F286.20162963867188
tp763
a(F1823.7406005859375
F484.98825073242188
tp764
a(F1823.8951416015625
F485.05300903320312
tp765
a(F1824.582275390625
F490.56414794921875
tp766
a(F1824.8924560546875
F490.41030883789062
tp767
a(F1818.8880615234375
F523.73529052734375
tp768
a(F1823.811279296875
F485.16961669921875
tp769
a(F1825.0037841796875
F490.73162841796875
tp770
a(F1823.7867431640625
F485.23934936523438
tp771
a(F1728.6051025390625
F286.17623901367188
tp772
a(F1825.003173828125
F490.783935546875
tp773
a(F1824.7745361328125
F490.91876220703125
tp774
a(F1824.7745361328125
F490.91876220703125
tp775
a(F1823.8726806640625
F485.12588500976562
tp776
a(F1826.7828369140625
F503.96112060546875
tp777
a(F1823.8260498046875
F485.1019287109375
tp778
a(F1819.6451416015625
F513.63751220703125
tp779
a(F1823.8994140625
F485.14404296875
tp780
a(F1823.873046875
F485.1937255859375
tp781
a(F1824.6207275390625
F491.01675415039062
tp782
a(F1824.6207275390625
F491.01675415039062
tp783
a(F1812.6435546875
F240.52964782714844
tp784
a(F1823.6561279296875
F485.08041381835938
tp785
a(F1825.0469970703125
F490.88330078125
tp786
a(F1825.0469970703125
F490.88330078125
tp787
a(F1823.8355712890625
F485.23696899414062
tp788
a(F1836.73681640625
F239.76010131835938
tp789
a(F1823.898193359375
F485.18368530273438
tp790
a(F1836.1763916015625
F240.0054931640625
tp791
a(F1836.25146484375
F239.90907287597656
tp792
a(F1829.509521484375
F483.08782958984375
tp793
a(F1824.82861328125
F490.96649169921875
tp794
a(F1824.82861328125
F490.96649169921875
tp795
a(F1823.8597412109375
F485.16351318359375
tp796
a(F1820.9622802734375
F495.679931640625
tp797
a(F1824.8961181640625
F491.00711059570312
tp798
a(F1824.8961181640625
F491.00711059570312
tp799
a(F1823.8350830078125
F485.24993896484375
tp800
a(F1820.930419921875
F495.73806762695312
tp801
a(F1728.4400634765625
F286.30392456054688
tp802
a(F1823.81884765625
F485.17532348632812
tp803
a(F1727.9195556640625
F286.44613647460938
tp804
a(F1823.7257080078125
F485.1337890625
tp805
a(F1606.132568359375
F220.82795715332031
tp806
a(F1823.73583984375
F485.15737915039062
tp807
a(F1727.9581298828125
F286.44949340820312
tp808
a(F1728.1915283203125
F286.3990478515625
tp809
a(F1879.357666015625
F243.85337829589844
tp810
a(F1824.5750732421875
F490.85845947265625
tp811
a(F1824.0284423828125
F490.93893432617188
tp812
a(F1826.9842529296875
F503.93896484375
tp813
a(F1819.4154052734375
F514.3404541015625
tp814
a(F1828.4617919921875
F483.06747436523438
tp815
a(F1844.2071533203125
F243.63172912597656
tp816
a(F1830.1297607421875
F488.28085327148438
tp817
a(F1823.2784423828125
F485.03939819335938
tp818
a(F1819.458740234375
F514.29766845703125
tp819
a(F1812.693603515625
F240.55137634277344
tp820
a(F1826.6837158203125
F474.58059692382812
tp821
a(F1830.656494140625
F487.98947143554688
tp822
a(F1812.7728271484375
F240.52772521972656
tp823
a(F1823.2965087890625
F485.06640625
tp824
a(F1828.2020263671875
F482.86032104492188
tp825
a(F1820.0916748046875
F495.70977783203125
tp826
a(F1819.8343505859375
F514.4429931640625
tp827
a(F1823.0855712890625
F484.97238159179688
tp828
a(F1819.9298095703125
F514.46240234375
tp829
a(F1823.0782470703125
F485.02456665039062
tp830
a(F1822.6787109375
F484.96780395507812
tp831
a(F1818.9853515625
F514.2569580078125
tp832
a(F1822.0213623046875
F485.12533569335938
tp833
a(F1826.0430908203125
F503.9713134765625
tp834
a(F1821.9984130859375
F485.23422241210938
tp835
a(F1819.7001953125
F495.77554321289062
tp836
a(F1822.7193603515625
F485.07733154296875
tp837
a(F1822.5877685546875
F485.01931762695312
tp838
a(F1822.558837890625
F485.03372192382812
tp839
a(F1822.0303955078125
F485.14205932617188
tp840
a(F1819.32568359375
F514.1712646484375
tp841
a(F1822.67138671875
F485.06695556640625
tp842
a(F1819.103759765625
F514.130126953125
tp843
a(F1822.178466796875
F485.15347290039062
tp844
a(F1822.0162353515625
F485.15573120117188
tp845
a(F1811.002197265625
F536.2825927734375
tp846
a(F1810.9541015625
F536.38861083984375
tp847
a(F1822.772705078125
F484.99996948242188
tp848
a(F1812.7615966796875
F240.39584350585938
tp849
a(F1812.7852783203125
F240.5377197265625
tp850
a(F1822.2652587890625
F485.20852661132812
tp851
a(F1822.1630859375
F485.18145751953125
tp852
a(F1822.6195068359375
F485.00100708007812
tp853
a(F1822.5166015625
F484.977783203125
tp854
a(F1822.8968505859375
F485.07015991210938
tp855
a(F1822.8380126953125
F485.0498046875
tp856
a(F1822.7615966796875
F485.01690673828125
tp857
a(F1826.5625
F504.03976440429688
tp858
a(F1822.862060546875
F485.04339599609375
tp859
a(F1836.7408447265625
F239.8621826171875
tp860
a(F1818.698974609375
F523.28900146484375
tp861
a(F1829.576416015625
F487.87033081054688
tp862
a(F1836.642333984375
F239.88127136230469
tp863
a(F165.37342834472656
F677.11737060546875
tp864
a(F1818.390625
F523.2908935546875
tp865
a(F1844.4439697265625
F243.55979919433594
tp866
a(F1744.55126953125
F290.49581909179688
tp867
a(F1585.81689453125
F268.54519653320312
tp868
a(F1822.067626953125
F485.22869873046875
tp869
a(F1836.552001953125
F239.90049743652344
tp870
a(F1818.9588623046875
F523.34454345703125
tp871
a(F1836.6697998046875
F239.7860107421875
tp872
a(F1677.638671875
F279.20999145507812
tp873
a(F1818.912109375
F523.25787353515625
tp874
a(F1836.6392822265625
F239.90620422363281
tp875
a(F1678.0513916015625
F278.79678344726562
tp876
a(F1752.5537109375
F225.17909240722656
tp877
a(F1820.0611572265625
F495.64712524414062
tp878
a(F1820.05712890625
F495.72763061523438
tp879
a(F1818.8839111328125
F523.27423095703125
tp880
a(F1820.1712646484375
F495.66806030273438
tp881
a(F1625.69873046875
F211.30763244628906
tp882
a(F1818.8211669921875
F523.1739501953125
tp883
a(F1818.8211669921875
F523.1739501953125
tp884
a(F1678.292236328125
F278.57373046875
tp885
a(F1678.13671875
F278.80593872070312
tp886
a(F1678.13671875
F278.80593872070312
tp887
a(F1606.0137939453125
F220.85240173339844
tp888
a(F1819.016357421875
F523.39471435546875
tp889
a(F1820.4268798828125
F514.8341064453125
tp890
a(F1822.6055908203125
F485.3677978515625
tp891
a(F1836.7496337890625
F239.93257141113281
tp892
a(F1818.968017578125
F523.2667236328125
tp893
a(F1819.0352783203125
F523.26220703125
tp894
a(F1678.2869873046875
F278.525390625
tp895
a(F1678.2869873046875
F278.525390625
tp896
a(F608.87078857421875
F884.201416015625
tp897
a(F1836.6905517578125
F239.98477172851562
tp898
a(F1819.1168212890625
F523.4915771484375
tp899
a(F1836.6781005859375
F239.94956970214844
tp900
a(F1818.8953857421875
F523.2308349609375
tp901
a(F1812.627685546875
F240.212646484375
tp902
a(F1836.5693359375
F239.91378784179688
tp903
a(F1822.62890625
F485.05557250976562
tp904
a(F1822.6171875
F485.04739379882812
tp905
a(F1818.865234375
F523.22015380859375
tp906
a(F1819.818359375
F514.43798828125
tp907
a(F1819.7952880859375
F514.33258056640625
tp908
a(F1818.7393798828125
F523.18353271484375
tp909
a(F1820.2342529296875
F495.68075561523438
tp910
a(F1819.9605712890625
F495.73623657226562
tp911
a(F1826.4013671875
F503.74542236328125
tp912
a(F1819.929931640625
F495.75860595703125
tp913
a(F1819.8060302734375
F495.8319091796875
tp914
a(F1836.6661376953125
F240.05271911621094
tp915
a(F1752.1531982421875
F225.24159240722656
tp916
a(F1818.674560546875
F523.25238037109375
tp917
a(F1818.6014404296875
F495.30377197265625
tp918
a(F1818.7127685546875
F495.19610595703125
tp919
a(F1818.7755126953125
F495.71160888671875
tp920
a(F1625.56494140625
F211.32757568359375
tp921
a(F1820.5576171875
F512.7598876953125
tp922
a(F1836.6607666015625
F239.83473205566406
tp923
a(F1836.5059814453125
F239.78953552246094
tp924
a(F1625.899658203125
F211.09671020507812
tp925
a(F1817.7799072265625
F512.9791259765625
tp926
a(F1836.5025634765625
F239.82151794433594
tp927
a(F1817.7783203125
F513.3997802734375
tp928
a(F1823.888427734375
F487.8238525390625
tp929
a(F1824.0576171875
F488.11734008789062
tp930
a(F1824.0408935546875
F488.18167114257812
tp931
a(F1824.1512451171875
F488.28167724609375
tp932
a(F1824.004150390625
F502.08865356445312
tp933
a(F1824.004150390625
F502.08865356445312
tp934
a(F1823.972412109375
F488.0501708984375
tp935
a(F1817.7830810546875
F522.84002685546875
tp936
a(F1822.685791015625
F501.24063110351562
tp937
a(F1836.522216796875
F239.75178527832031
tp938
a(F1819.17919921875
F483.93148803710938
tp939
a(F1822.0648193359375
F501.133544921875
tp940
a(F1818.4432373046875
F483.87518310546875
tp941
a(F1821.7137451171875
F501.14895629882812
tp942
a(F1812.797607421875
F240.224365234375
tp943
a(F1818.090087890625
F483.86376953125
tp944
a(F1821.3046875
F501.55191040039062
tp945
a(F1817.2587890625
F483.86865234375
tp946
a(F1626.442626953125
F350.12701416015625
tp947
a(F1816.241943359375
F483.93463134765625
tp948
a(F1815.55859375
F483.75491333007812
tp949
a(F1814.6395263671875
F483.89178466796875
tp950
a(F1819.013916015625
F500.74734497070312
tp951
a(F1811.9156494140625
F483.8756103515625
tp952
a(F1809.1605224609375
F494.93557739257812
tp953
a(F1809.2625732421875
F483.99844360351562
tp954
a(F1807.68505859375
F483.91009521484375
tp955
a(F1806.814697265625
F483.43109130859375
tp956
a(F1805.543212890625
F483.18365478515625
tp957
a(F1804.1632080078125
F482.888427734375
tp958
a(F1805.059326171875
F487.89312744140625
tp959
a(F1802.7518310546875
F481.63641357421875
tp960
a(F1802.299560546875
F480.96697998046875
tp961
a(F1805.111572265625
F497.57461547851562
tp962
a(F1804.37646484375
F497.05752563476562
tp963
a(F1845.233642578125
F243.31332397460938
tp964
a(F1802.482421875
F482.82955932617188
tp965
a(F1796.2720947265625
F479.47586059570312
tp966
a(F1812.7611083984375
F240.56013488769531
tp967
a(F1800.347900390625
F482.67059326171875
tp968
a(F1793.95703125
F520.0831298828125
tp969
a(F1799.38671875
F482.40472412109375
tp970
a(F1793.7249755859375
F520.042724609375
tp971
a(F1794.6766357421875
F484.04443359375
tp972
a(F1797.5997314453125
F481.64453125
tp973
a(F1836.6021728515625
F239.93614196777344
tp974
a(F1607.257080078125
F221.13377380371094
tp975
a(F1790.701171875
F519.075439453125
tp976
a(F1791.9971923828125
F475.87701416015625
tp977
a(F1789.734619140625
F475.14175415039062
tp978
a(F1792.9825439453125
F478.63809204101562
tp979
a(F1791.835693359375
F478.26058959960938
tp980
a(F1790.1182861328125
F491.8570556640625
tp981
a(F1785.5103759765625
F474.1859130859375
tp982
a(F1784.3797607421875
F474.13150024414062
tp983
a(F1782.1748046875
F484.65390014648438
tp984
a(F1790.13134765625
F477.196533203125
tp985
a(F1780.8724365234375
F484.78872680664062
tp986
a(F1844.7032470703125
F243.60786437988281
tp987
a(F1779.368896484375
F474.27151489257812
tp988
a(F1777.6572265625
F474.28311157226562
tp989
a(F1625.580322265625
F211.42182922363281
tp990
a(F1771.1070556640625
F474.65853881835938
tp991
a(F1765.3446044921875
F477.95703125
tp992
a(F1762.228515625
F487.26214599609375
tp993
a(F1844.453857421875
F243.63410949707031
tp994
a(F1844.453857421875
F243.63410949707031
tp995
a(F1728.544677734375
F486.22817993164062
tp996
a(F1812.790283203125
F240.5478515625
tp997
a(F1731.6251220703125
F464.88494873046875
tp998
a(F1836.576416015625
F239.80075073242188
tp999
a(F1835.866943359375
F240.01596069335938
tp1000
a(F1843.8109130859375
F243.78312683105469
tp1001
a(F1811.8089599609375
F240.69160461425781
tp1002
a(F1641.6904296875
F480.46011352539062
tp1003
a(F1812.552490234375
F240.64523315429688
tp1004
a(F1811.7999267578125
F240.55007934570312
tp1005
a(F1812.3763427734375
F240.671630859375
tp1006
a(F1583.26416015625
F268.828857421875
tp1007
a(F1625.4151611328125
F211.201171875
tp1008
a(F1844.1424560546875
F243.71092224121094
tp1009
a(F1844.3695068359375
F243.62025451660156
tp1010
a(F1844.3695068359375
F243.62025451660156
tp1011
a(F1642.630615234375
F854.46240234375
tp1012
a(F1626.11279296875
F852.03436279296875
tp1013
a(F1835.671875
F239.92135620117188
tp1014
a(F1835.62841796875
F239.89866638183594
tp1015
a(F1835.825927734375
F239.98109436035156
tp1016
a(F1592.7791748046875
F826.5882568359375
tp1017
a(F1844.195556640625
F243.72041320800781
tp1018
a(F1751.5205078125
F225.24700927734375
tp1019
a(F1835.752685546875
F240.05982971191406
tp1020
a(F1844.31005859375
F243.657470703125
tp1021
a(F1573.8216552734375
F790.04095458984375
tp1022
a(F1835.99365234375
F239.93965148925781
tp1023
a(F1844.0914306640625
F243.67845153808594
tp1024
a(F1594.0614013671875
F770.6309814453125
tp1025
a(F1752.4520263671875
F225.33305358886719
tp1026
a(F1812.4090576171875
F240.65084838867188
tp1027
a(F1603.5328369140625
F755.778564453125
tp1028
a(F1593.609130859375
F809.78070068359375
tp1029
a(F1609.3253173828125
F759.10247802734375
tp1030
a(F1612.2659912109375
F766.94769287109375
tp1031
a(F1613.37060546875
F743.7562255859375
tp1032
a(F1811.7132568359375
F240.54885864257812
tp1033
a(F1609.1522216796875
F788.43304443359375
tp1034
a(F1835.574951171875
F239.79011535644531
tp1035
a(F1623.018310546875
F746.55291748046875
tp1036
a(F1835.6153564453125
F239.91279602050781
tp1037
a(F1844.3258056640625
F243.57301330566406
tp1038
a(F1639.5567626953125
F813.38006591796875
tp1039
a(F1630.764404296875
F784.56353759765625
tp1040
a(F1835.57763671875
F239.79676818847656
tp1041
a(F1835.658935546875
F240.00900268554688
tp1042
a(F1657.32763671875
F746.1907958984375
tp1043
a(F1812.3853759765625
F240.66238403320312
tp1044
a(F1812.395751953125
F240.68351745605469
tp1045
a(F1835.6121826171875
F239.92662048339844
tp1046
a(F1835.6455078125
F239.87275695800781
tp1047
a(F1718.253173828125
F720.13623046875
tp1048
a(F1835.7486572265625
F239.96427917480469
tp1049
a(F1724.6876220703125
F737.05035400390625
tp1050
a(F1725.4197998046875
F710.15875244140625
tp1051
a(F1735.6773681640625
F758.9468994140625
tp1052
a(F1743.0596923828125
F740.6497802734375
tp1053
a(F1742.2322998046875
F750.60748291015625
tp1054
a(F1755.3450927734375
F706.37139892578125
tp1055
a(F1844.2735595703125
F243.65682983398438
tp1056
a(F1835.6893310546875
F239.987060546875
tp1057
a(F1747.5458984375
F746.43792724609375
tp1058
a(F1749.6378173828125
F745.35821533203125
tp1059
a(F1750.565673828125
F744.9393310546875
tp1060
a(F1752.3218994140625
F744.6923828125
tp1061
a(F1636.11669921875
F941.57598876953125
tp1062
a(F1753.138916015625
F744.1595458984375
tp1063
a(F1835.8599853515625
F240.06986999511719
tp1064
a(F1566.4488525390625
F899.04058837890625
tp1065
a(F1791.4481201171875
F703.03814697265625
tp1066
a(F1516.6820068359375
F877.91680908203125
tp1067
a(F1835.81640625
F239.92741394042969
tp1068
a(F1844.21484375
F243.588134765625
tp1069
a(F1797.5958251953125
F692.2528076171875
tp1070
a(F1835.9095458984375
F240.06004333496094
tp1071
a(F1835.7132568359375
F239.96429443359375
tp1072
a(F1812.29736328125
F240.63087463378906
tp1073
a(F1844.2208251953125
F243.69630432128906
tp1074
a(F1734.018798828125
F692.00152587890625
tp1075
a(F1835.571533203125
F239.86433410644531
tp1076
a(F1812.4959716796875
F240.63792419433594
tp1077
a(F1591.0958251953125
F708.897216796875
tp1078
a(F1835.914794921875
F239.91816711425781
tp1079
a(F1835.920166015625
F240.03495788574219
tp1080
a(F1556.1995849609375
F743.28070068359375
tp1081
a(F1844.1962890625
F243.66339111328125
tp1082
a(F1844.19775390625
F243.69873046875
tp1083
a(F1605.5184326171875
F221.19093322753906
tp1084
a(F1835.8729248046875
F240.06747436523438
tp1085
a(F1844.2061767578125
F243.66184997558594
tp1086
a(F1844.2879638671875
F243.59822082519531
tp1087
a(F1625.012451171875
F881.51763916015625
tp1088
a(F1624.371826171875
F887.48724365234375
tp1089
a(F1835.6729736328125
F239.93721008300781
tp1090
a(F1719.5478515625
F912.58465576171875
tp1091
a(F1719.5478515625
F912.58465576171875
tp1092
a(F1678.0433349609375
F882.94036865234375
tp1093
a(F1835.595458984375
F239.90135192871094
tp1094
a(F1836.04638671875
F239.99317932128906
tp1095
a(F1812.0003662109375
F240.65061950683594
tp1096
a(F1753.3326416015625
F832.8824462890625
tp1097
a(F1836.204833984375
F239.90730285644531
tp1098
a(F1836.609130859375
F239.90667724609375
tp1099
a(F1737.87255859375
F810.80279541015625
tp1100
a(F1724.955322265625
F799.989501953125
tp1101
a(F1836.5743408203125
F239.97114562988281
tp1102
a(F1812.9385986328125
F240.52577209472656
tp1103
a(F1752.2099609375
F225.27146911621094
tp1104
a(F1625.76806640625
F211.15621948242188
tp1105
a(F1536.724365234375
F720.97021484375
tp1106
a(F1836.58349609375
F239.92903137207031
tp1107
a(F1812.7294921875
F240.51383972167969
tp1108
a(F1783.88623046875
F909.8399658203125
tp1109
a(F1785.006103515625
F729.894287109375
tp1110
a(F1730.3162841796875
F922.4432373046875
tp1111
a(F1600.353271484375
F897.62933349609375
tp1112
a(F1837.007080078125
F239.77296447753906
tp1113
a(F1545.697265625
F898.9544677734375
tp1114
a(F1437.5657958984375
F895.35455322265625
tp1115
a(F1425.4354248046875
F892.1981201171875
tp1116
a(F1845.2314453125
F243.07786560058594
tp1117
a(F1837.383544921875
F239.77401733398438
tp1118
a(F1813.072509765625
F240.1883544921875
tp1119
a(F1813.2734375
F239.93551635742188
tp1120
a(F1836.553466796875
F239.78599548339844
tp1121
a(F1845.505859375
F243.12826538085938
tp1122
a(F1837.06689453125
F239.85549926757812
tp1123
a(F1618.48193359375
F748.84356689453125
tp1124
a(F1635.5169677734375
F278.916015625
tp1125
a(F1605.9781494140625
F220.78623962402344
tp1126
a(F1752.3284912109375
F225.34176635742188
tp1127
a(F1813.016845703125
F240.2293701171875
tp1128
a(F1868.8671875
F319.82571411132812
tp1129
a(F1836.6082763671875
F239.72196960449219
tp1130
a(F1519.939697265625
F734.84490966796875
tp1131
a(F1836.6329345703125
F239.99403381347656
tp1132
a(F1743.2955322265625
F291.4407958984375
tp1133
a(F1756.572021484375
F108.08208465576172
tp1134
a(F1752.620361328125
F225.25962829589844
tp1135
a(F1836.2548828125
F239.96505737304688
tp1136
a(F1812.3033447265625
F240.36698913574219
tp1137
a(F1836.6329345703125
F239.88960266113281
tp1138
a(F1813.0628662109375
F239.98355102539062
tp1139
a(F1845.6798095703125
F243.00637817382812
tp1140
a(F1803.58349609375
F748.17462158203125
tp1141
a(F1836.572998046875
F239.9744873046875
tp1142
a(F1835.97509765625
F240.05178833007812
tp1143
a(F1836.52294921875
F239.92584228515625
tp1144
a(F1681.06689453125
F676.396728515625
tp1145
a(F1836.5087890625
F240.00593566894531
tp1146
a(F1752.19287109375
F225.1544189453125
tp1147
a(F1812.9542236328125
F240.32847595214844
tp1148
a(F1587.4805908203125
F537.863525390625
tp1149
a(F1847.0643310546875
F98.460952758789062
tp1150
a(F1844.36669921875
F243.6602783203125
tp1151
a(F1836.081787109375
F239.95578002929688
tp1152
a(F1836.759033203125
F239.74824523925781
tp1153
a(F1836.5321044921875
F239.78059387207031
tp1154
a(F1625.50244140625
F211.15483093261719
tp1155
a(F1812.5789794921875
F240.54150390625
tp1156
a(F1836.3848876953125
F239.91384887695312
tp1157
a(F1835.83740234375
F240.05094909667969
tp1158
a(F1812.4461669921875
F240.644775390625
tp1159
a(F1605.8741455078125
F220.99740600585938
tp1160
a(F1811.925537109375
F240.57095336914062
tp1161
a(F1835.7454833984375
F239.80870056152344
tp1162
a(F1755.8485107421875
F108.44875335693359
tp1163
a(F1844.333984375
F243.64419555664062
tp1164
a(F1844.1536865234375
F243.72897338867188
tp1165
a(F1835.8936767578125
F239.97480773925781
tp1166
a(F1836.08740234375
F239.95028686523438
tp1167
a(F1806.62744140625
F533.5623779296875
tp1168
a(F1835.75146484375
F240.00717163085938
tp1169
a(F1835.8101806640625
F240.01408386230469
tp1170
a(F1844.2486572265625
F243.64175415039062
tp1171
a(F1836.1083984375
F240.03353881835938
tp1172
a(F1835.86962890625
F239.97053527832031
tp1173
a(F1835.939208984375
F239.82051086425781
tp1174
a(F1836.6502685546875
F239.95710754394531
tp1175
a(F1835.766357421875
F239.96676635742188
tp1176
a(F1681.4019775390625
F695.5267333984375
tp1177
a(F1835.6068115234375
F239.98983764648438
tp1178
a(F1876.8323974609375
F834.3154296875
tp1179
a(F1652.0816650390625
F684.9610595703125
tp1180
a(F1623.02783203125
F757.2017822265625
tp1181
a(F1643.8233642578125
F684.155029296875
tp1182
a(F1857.689208984375
F889.7755126953125
tp1183
a(F1812.9932861328125
F240.00312805175781
tp1184
a(F1635.1534423828125
F683.5032958984375
tp1185
a(F1625.4925537109375
F211.06195068359375
tp1186
a(F1625.76806640625
F211.19393920898438
tp1187
a(F1605.969482421875
F220.84652709960938
tp1188
a(F1812.8338623046875
F240.20877075195312
tp1189
a(F1625.7154541015625
F211.08993530273438
tp1190
a(F1555.5458984375
F742.75848388671875
tp1191
a(F1663.08447265625
F786.9991455078125
tp1192
a(F1664.897705078125
F801.99114990234375
tp1193
a(F1813.2943115234375
F240.0067138671875
tp1194
a(F1531.2640380859375
F665.195068359375
tp1195
a(F1836.6185302734375
F239.79013061523438
tp1196
a(F1633.96044921875
F766.8939208984375
tp1197
a(F1836.5928955078125
F239.88995361328125
tp1198
a(F1646.017578125
F721.4718017578125
tp1199
a(F1836.5234375
F239.93701171875
tp1200
a(F1836.6773681640625
F239.79457092285156
tp1201
a(F1844.28271484375
F243.64511108398438
tp1202
a(F1836.8668212890625
F239.96751403808594
tp1203
a(F1836.8670654296875
F239.78099060058594
tp1204
a(F1836.603271484375
F239.93583679199219
tp1205
a(F1876.729248046875
F574.170166015625
tp1206
a(F1876.8538818359375
F553.211181640625
tp1207
a(F1866.302001953125
F553.72247314453125
tp1208
a(F1846.7335205078125
F539.66302490234375
tp1209
a(F1828.1546630859375
F521.19293212890625
tp1210
a(F1821.45849609375
F515.52374267578125
tp1211
a(F1814.461669921875
F525.58355712890625
tp1212
a(F1811.0341796875
F525.46832275390625
tp1213
a(F1803.2305908203125
F545.3387451171875
tp1214
a(F1799.909423828125
F544.05633544921875
tp1215
a(F1793.38232421875
F692.98651123046875
tp1216
a(F1568.92724609375
F448.45919799804688
tp1217
a(F1795.1497802734375
F514.88629150390625
tp1218
a(F1625.8753662109375
F211.08998107910156
tp1219
a(F1625.6820068359375
F211.19857788085938
tp1220
a(F1786.5589599609375
F512.10321044921875
tp1221
a(F1784.1651611328125
F512.44580078125
tp1222
a(F1776.3853759765625
F530.9320068359375
tp1223
a(F1774.35595703125
F527.94512939453125
tp1224
a(F1779.9207763671875
F509.19818115234375
tp1225
a(F1767.5283203125
F518.50213623046875
tp1226
a(F1769.72021484375
F499.839111328125
tp1227
a(F1766.538330078125
F499.43630981445312
tp1228
a(F1763.287841796875
F499.88641357421875
tp1229
a(F1836.52685546875
F239.92539978027344
tp1230
a(F1836.5174560546875
F239.96701049804688
tp1231
a(F1750.64794921875
F508.50546264648438
tp1232
a(F1625.7840576171875
F211.21414184570312
tp1233
a(F1748.606201171875
F506.98550415039062
tp1234
a(F1739.6802978515625
F487.84860229492188
tp1235
a(F1746.3719482421875
F506.40951538085938
tp1236
a(F1746.878662109375
F488.66110229492188
tp1237
a(F1738.3509521484375
F469.20733642578125
tp1238
a(F1732.45361328125
F496.12832641601562
tp1239
a(F1836.564208984375
F239.94021606445312
tp1240
a(F1734.7330322265625
F478.12979125976562
tp1241
a(F1835.8839111328125
F240.01504516601562
tp1242
a(F1725.2530517578125
F497.23379516601562
tp1243
a(F1722.466552734375
F463.3145751953125
tp1244
a(F1711.3197021484375
F487.64425659179688
tp1245
a(F1853.1971435546875
F645.04022216796875
tp1246
a(F1835.8370361328125
F239.88250732421875
tp1247
a(F1699.2894287109375
F479.45120239257812
tp1248
a(F1710.222412109375
F468.44662475585938
tp1249
a(F1697.983154296875
F478.48651123046875
tp1250
a(F1708.2958984375
F467.81369018554688
tp1251
a(F1696.1903076171875
F478.05001831054688
tp1252
a(F1705.8267822265625
F467.645263671875
tp1253
a(F1835.8262939453125
F240.07461547851562
tp1254
a(F1694.536376953125
F478.3280029296875
tp1255
a(F1811.8905029296875
F240.60585021972656
tp1256
a(F1835.69384765625
F239.99655151367188
tp1257
a(F1844.1845703125
F243.65080261230469
tp1258
a(F1812.129638671875
F240.63507080078125
tp1259
a(F1668.341552734375
F470.92910766601562
tp1260
a(F1664.2081298828125
F452.3497314453125
tp1261
a(F1658.20361328125
F470.59613037109375
tp1262
a(F1660.196044921875
F453.979736328125
tp1263
a(F1655.872802734375
F471.79910278320312
tp1264
a(F1649.184326171875
F479.88922119140625
tp1265
a(F1649.327880859375
F457.1868896484375
tp1266
a(F1642.30615234375
F471.94241333007812
tp1267
a(F1812.70556640625
F240.55094909667969
tp1268
a(F1639.70849609375
F462.0859375
tp1269
a(F1642.4873046875
F454.20205688476562
tp1270
a(F1642.14892578125
F453.61685180664062
tp1271
a(F1641.4312744140625
F453.36923217773438
tp1272
a(F1644.1634521484375
F469.91912841796875
tp1273
a(F1643.0726318359375
F460.94735717773438
tp1274
a(F1649.5631103515625
F471.00717163085938
tp1275
a(F1651.5360107421875
F471.2203369140625
tp1276
a(F1653.0606689453125
F471.81246948242188
tp1277
a(F1845.1275634765625
F609.4139404296875
tp1278
a(F1822.885009765625
F618.608154296875
tp1279
a(F1835.669189453125
F240.056640625
tp1280
a(F1751.5843505859375
F225.56071472167969
tp1281
a(F1752.22412109375
F225.47911071777344
tp1282
a(F1755.785888671875
F108.44095611572266
tp1283
a(F1671.9534912109375
F468.35275268554688
tp1284
a(F1666.5223388671875
F471.51565551757812
tp1285
a(F1666.5223388671875
F471.51565551757812
tp1286
a(F1836.517822265625
F239.88545227050781
tp1287
a(F1627.85888671875
F478.72381591796875
tp1288
a(F1835.63818359375
F239.9744873046875
tp1289
a(F1625.689208984375
F477.06546020507812
tp1290
a(F1836.617431640625
F240.00138854980469
tp1291
a(F1599.0321044921875
F477.62216186523438
tp1292
a(F1805.87939453125
F629.5302734375
tp1293
a(F1599.8648681640625
F486.21835327148438
tp1294
a(F1599.735595703125
F475.05816650390625
tp1295
a(F1588.858642578125
F487.016357421875
tp1296
a(F1812.6781005859375
F240.452880859375
tp1297
a(F1588.671875
F484.05404663085938
tp1298
a(F1584.1258544921875
F482.20510864257812
tp1299
a(F1581.4818115234375
F482.35821533203125
tp1300
a(F1574.329833984375
F486.6446533203125
tp1301
a(F1570.734619140625
F525.38299560546875
tp1302
a(F1738.88623046875
F425.6671142578125
tp1303
a(F1565.939697265625
F491.38082885742188
tp1304
a(F1561.939697265625
F494.900390625
tp1305
a(F1543.74072265625
F482.824951171875
tp1306
a(F1543.2960205078125
F508.35699462890625
tp1307
a(F1541.6566162109375
F509.06985473632812
tp1308
a(F1790.735107421875
F714.81732177734375
tp1309
a(F1738.138916015625
F708.9254150390625
tp1310
a(F1812.288818359375
F240.24530029296875
tp1311
a(F1835.935791015625
F239.90422058105469
tp1312
a(F1836.6041259765625
F239.91586303710938
tp1313
a(F1812.989990234375
F240.35116577148438
tp1314
a(F1835.8380126953125
F239.8773193359375
tp1315
a(F1743.3509521484375
F712.47698974609375
tp1316
a(F1836.8115234375
F240.03239440917969
tp1317
a(F1625.6337890625
F211.17147827148438
tp1318
a(F1706.7010498046875
F680.4715576171875
tp1319
a(F1706.7010498046875
F680.4715576171875
tp1320
a(F1735.2049560546875
F667.64373779296875
tp1321
a(F1853.2298583984375
F290.55084228515625
tp1322
a(F1863.953857421875
F83.353958129882812
tp1323
a(F1812.8656005859375
F240.2437744140625
tp1324
a(F1657.7513427734375
F656.50164794921875
tp1325
a(F1835.7572021484375
F239.87939453125
tp1326
a(F1835.5625
F239.93440246582031
tp1327
a(F1812.671875
F240.56398010253906
tp1328
a(F1812.198974609375
F240.2635498046875
tp1329
a(F1836.7884521484375
F239.8267822265625
tp1330
a(F1813.099853515625
F240.21463012695312
tp1331
a(F1836.736328125
F239.88726806640625
tp1332
a(F1836.543701171875
F239.90455627441406
tp1333
a(F1668.267822265625
F424.18588256835938
tp1334
a(F1510.1875
F513.8619384765625
tp1335
a(F1836.60009765625
F239.93734741210938
tp1336
a(F1511.0904541015625
F605.177490234375
tp1337
a(F1812.7982177734375
F240.60279846191406
tp1338
a(F1635.558349609375
F280.92037963867188
tp1339
a(F1530.2757568359375
F532.72467041015625
tp1340
a(F1529.8580322265625
F552.3878173828125
tp1341
a(F1531.0172119140625
F532.6470947265625
tp1342
a(F1531.6109619140625
F532.79339599609375
tp1343
a(F1531.8438720703125
F532.9068603515625
tp1344
a(F1525.002197265625
F509.91217041015625
tp1345
a(F1525.901123046875
F510.07382202148438
tp1346
a(F1533.7830810546875
F534.214111328125
tp1347
a(F1534.36279296875
F534.39447021484375
tp1348
a(F1535.588134765625
F534.78082275390625
tp1349
a(F1537.8707275390625
F544.50836181640625
tp1350
a(F1537.8707275390625
F544.50836181640625
tp1351
a(F1836.63720703125
F239.94378662109375
tp1352
a(F1538.013671875
F549.87628173828125
tp1353
a(F1813.0262451171875
F240.08428955078125
tp1354
a(F1541.5439453125
F538.6966552734375
tp1355
a(F1541.65478515625
F538.837158203125
tp1356
a(F1547.2567138671875
F546.1214599609375
tp1357
a(F1547.30419921875
F543.9224853515625
tp1358
a(F1547.165283203125
F544.82318115234375
tp1359
a(F1547.924560546875
F545.6995849609375
tp1360
a(F1548.1475830078125
F545.6717529296875
tp1361
a(F1548.8380126953125
F525.06280517578125
tp1362
a(F1844.20849609375
F243.59486389160156
tp1363
a(F1836.623046875
F239.90544128417969
tp1364
a(F1551.7099609375
F551.83343505859375
tp1365
a(F1836.6231689453125
F239.81089782714844
tp1366
a(F1565.3929443359375
F544.119384765625
tp1367
a(F1570.0885009765625
F538.328125
tp1368
a(F1564.196533203125
F567.72479248046875
tp1369
a(F1567.525634765625
F567.2247314453125
tp1370
a(F1796.0606689453125
F696.212646484375
tp1371
a(F1570.59326171875
F576.46142578125
tp1372
a(F1615.7786865234375
F216.41818237304688
tp1373
a(F1625.9522705078125
F211.26142883300781
tp1374
a(F1576.4793701171875
F564.33953857421875
tp1375
a(F1706.5806884765625
F735.62689208984375
tp1376
a(F1571.795166015625
F588.58807373046875
tp1377
a(F1571.0408935546875
F588.31329345703125
tp1378
a(F1844.49560546875
F243.590576171875
tp1379
a(F1566.0428466796875
F569.81707763671875
tp1380
a(F1570.9041748046875
F586.37548828125
tp1381
a(F1574.90771484375
F575.2122802734375
tp1382
a(F1569.5460205078125
F586.112060546875
tp1383
a(F1563.0712890625
F561.7230224609375
tp1384
a(F1561.77685546875
F582.43505859375
tp1385
a(F1561.302734375
F576.07763671875
tp1386
a(F1626.1566162109375
F211.06626892089844
tp1387
a(F1561.31298828125
F581.5703125
tp1388
a(F1567.59521484375
F598.72576904296875
tp1389
a(F1560.4576416015625
F588.80609130859375
tp1390
a(F1560.4576416015625
F588.80609130859375
tp1391
a(F1558
F556.0487060546875
tp1392
a(F1563.6519775390625
F559.237060546875
tp1393
a(F1836.6328125
F240.01878356933594
tp1394
a(F1545.68798828125
F572.468017578125
tp1395
a(F1813.0274658203125
F240.15821838378906
tp1396
a(F1543.93359375
F572.459228515625
tp1397
a(F1542.0294189453125
F572.1668701171875
tp1398
a(F1812.8546142578125
F240.24992370605469
tp1399
a(F1532.8748779296875
F547.14691162109375
tp1400
a(F1836.76611328125
F239.67704772949219
tp1401
a(F1812.982421875
F240.24349975585938
tp1402
a(F1812.88134765625
F240.24983215332031
tp1403
a(F1836.657470703125
F239.7625732421875
tp1404
a(F1526.36572265625
F536.7760009765625
tp1405
a(F1526.2550048828125
F560.81817626953125
tp1406
a(F1520.940185546875
F552.1810302734375
tp1407
a(F1751.658203125
F225.26748657226562
tp1408
a(F1511.7171630859375
F542.93133544921875
tp1409
a(F1511.7171630859375
F542.93133544921875
tp1410
a(F1615.9334716796875
F216.52392578125
tp1411
a(F1616.058837890625
F216.55859375
tp1412
a(F1836.503662109375
F239.78514099121094
tp1413
a(F1812.85888671875
F240.1297607421875
tp1414
a(F1836.7679443359375
F239.76318359375
tp1415
a(F1836.7845458984375
F239.83201599121094
tp1416
a(F1606.545654296875
F220.9678955078125
tp1417
a(F1813.04248046875
F240.26657104492188
tp1418
a(F1568.176513671875
F626.54876708984375
tp1419
a(F1585.1392822265625
F648.5462646484375
tp1420
a(F1606.408203125
F220.65718078613281
tp1421
a(F1812.742919921875
F240.35076904296875
tp1422
a(F1812.9315185546875
F240.52754211425781
tp1423
a(F1813.134765625
F240.29901123046875
tp1424
a(F1812.81884765625
F240.07150268554688
tp1425
a(F1812.8670654296875
F240.08059692382812
tp1426
a(F1836.5272216796875
F239.83389282226562
tp1427
a(F1607.427490234375
F459.28738403320312
tp1428
a(F1639.9202880859375
F446.88198852539062
tp1429
a(F1633.6539306640625
F456.48751831054688
tp1430
a(F1751.622802734375
F232.16371154785156
tp1431
a(F1640.9766845703125
F456.23358154296875
tp1432
a(F1836.4285888671875
F239.89132690429688
tp1433
a(F1592.883544921875
F281.12109375
tp1434
a(F1836.6910400390625
F239.89100646972656
tp1435
a(F1724.423583984375
F470.03988647460938
tp1436
a(F1835.9578857421875
F239.92192077636719
tp1437
a(F1783.3228759765625
F458.65994262695312
tp1438
a(F1812.5380859375
F240.52793884277344
tp1439
a(F1841.2039794921875
F455.50140380859375
tp1440
a(F1812.5838623046875
F240.253662109375
tp1441
a(F1812.7918701171875
F240.14370727539062
tp1442
a(F1903.217529296875
F461.83963012695312
tp1443
a(F1812.234130859375
F240.17732238769531
tp1444
a(F1835.699951171875
F239.90867614746094
tp1445
a(F1812.0487060546875
F240.22308349609375
tp1446
a(F1812.8740234375
F240.21563720703125
tp1447
a(F1835.9876708984375
F239.94801330566406
tp1448
a(F1836.357177734375
F296.26785278320312
tp1449
a(F1836.59033203125
F239.80975341796875
tp1450
a(F1836.5181884765625
F239.81370544433594
tp1451
a(F1812.8812255859375
F240.18539428710938
tp1452
a(F1835.7144775390625
F239.78926086425781
tp1453
a(F1775.051513671875
F289.68887329101562
tp1454
a(F1615.8828125
F216.28410339355469
tp1455
a(F1836.639892578125
F239.76593017578125
tp1456
a(F1836.6434326171875
F239.75987243652344
tp1457
a(F1812.921142578125
F240.35415649414062
tp1458
a(F1813.0072021484375
F240.14613342285156
tp1459
a(F1812.9832763671875
F240.10169982910156
tp1460
a(F1812.6173095703125
F240.27104187011719
tp1461
a(F1812.9700927734375
F240.16197204589844
tp1462
a(F1615.9034423828125
F216.37229919433594
tp1463
a(F1836.8636474609375
F239.81916809082031
tp1464
a(F1836.643798828125
F239.77487182617188
tp1465
a(F1836.6553955078125
F239.71954345703125
tp1466
a(F1812.8875732421875
F240.12615966796875
tp1467
a(F1813.0184326171875
F239.98849487304688
tp1468
a(F1853.778076171875
F880.29669189453125
tp1469
a(F1812.9691162109375
F239.91304016113281
tp1470
a(F1837.0028076171875
F239.80271911621094
tp1471
a(F1820.004150390625
F306.87551879882812
tp1472
a(F1836.529541015625
F239.73220825195312
tp1473
a(F1756.2078857421875
F886.1729736328125
tp1474
a(F1837.030517578125
F239.67021179199219
tp1475
a(F1812.928955078125
F240.27720642089844
tp1476
a(F1728.9150390625
F286.08871459960938
tp1477
a(F1738.5350341796875
F286.35629272460938
tp1478
a(F1813.2174072265625
F240.04386901855469
tp1479
a(F1615.833251953125
F216.41668701171875
tp1480
a(F1728.3408203125
F286.236328125
tp1481
a(F1847.21142578125
F310.22714233398438
tp1482
a(F1728.5050048828125
F286.11328125
tp1483
a(F1723.50634765625
F283.63973999023438
tp1484
a(F1728.3795166015625
F286.1275634765625
tp1485
a(F1615.79248046875
F216.38536071777344
tp1486
a(F1728.49951171875
F286.21121215820312
tp1487
a(F1812.7802734375
F240.19158935546875
tp1488
a(F1728.329345703125
F286.22134399414062
tp1489
a(F1728.497802734375
F286.07028198242188
tp1490
a(F1728.6839599609375
F286.054931640625
tp1491
a(F1728.0355224609375
F286.17465209960938
tp1492
a(F1728.7425537109375
F286.00930786132812
tp1493
a(F1813.269775390625
F239.992431640625
tp1494
a(F1853.780517578125
F311.25241088867188
tp1495
a(F1615.9783935546875
F216.31581115722656
tp1496
a(F1854.8145751953125
F311.21017456054688
tp1497
a(F1728.885986328125
F286.12286376953125
tp1498
a(F1855.1318359375
F311.36099243164062
tp1499
a(F1812.8837890625
F240.10200500488281
tp1500
a(F1723.39599609375
F283.60952758789062
tp1501
a(F1728.080322265625
F286.09677124023438
tp1502
a(F1723.8157958984375
F283.54452514648438
tp1503
a(F1728.9075927734375
F286.03924560546875
tp1504
a(F1728.479248046875
F286.04852294921875
tp1505
a(F1812.6947021484375
F239.97830200195312
tp1506
a(F1728.590087890625
F286.08682250976562
tp1507
a(F1728.936767578125
F286.04779052734375
tp1508
a(F1729.0743408203125
F286.044189453125
tp1509
a(F1728.2940673828125
F286.0533447265625
tp1510
a(F1616.0067138671875
F216.25418090820312
tp1511
a(F1728.31640625
F286.11099243164062
tp1512
a(F1836.9283447265625
F239.84165954589844
tp1513
a(F1728.89599609375
F285.9945068359375
tp1514
a(F1851.4998779296875
F302.31591796875
tp1515
a(F1728.9156494140625
F286.04989624023438
tp1516
a(F1851.9248046875
F302.3067626953125
tp1517
a(F1728.9620361328125
F286.055908203125
tp1518
a(F1728.5107421875
F286.15811157226562
tp1519
a(F1723.9439697265625
F283.48110961914062
tp1520
a(F1729.00927734375
F286.1597900390625
tp1521
a(F1723.98486328125
F283.43777465820312
tp1522
a(F1728.90185546875
F286.15127563476562
tp1523
a(F1728.6151123046875
F286.24151611328125
tp1524
a(F1723.9107666015625
F283.43682861328125
tp1525
a(F1728.95166015625
F286.11923217773438
tp1526
a(F1836.6134033203125
F239.8944091796875
tp1527
a(F1728.5379638671875
F286.07379150390625
tp1528
a(F1728.427978515625
F286.01345825195312
tp1529
a(F1728.448974609375
F286.16061401367188
tp1530
a(F1723.4970703125
F283.62020874023438
tp1531
a(F1813.3919677734375
F240.02081298828125
tp1532
a(F1813.256103515625
F240.16351318359375
tp1533
a(F1606.58056640625
F220.788818359375
tp1534
a(F1729.0338134765625
F286.013671875
tp1535
a(F1728.8626708984375
F285.98931884765625
tp1536
a(F1728.9505615234375
F286.014404296875
tp1537
a(F1647.4161376953125
F275.75527954101562
tp1538
a(F1728.3028564453125
F286.14083862304688
tp1539
a(F1728.3760986328125
F286.10073852539062
tp1540
a(F1728.6058349609375
F286.07269287109375
tp1541
a(F1813.3734130859375
F240.02755737304688
tp1542
a(F1728.927001953125
F286.0233154296875
tp1543
a(F1728.1968994140625
F286.1395263671875
tp1544
a(F1812.9322509765625
F240.04875183105469
tp1545
a(F1728.2982177734375
F286.13949584960938
tp1546
a(F1615.87451171875
F216.42840576171875
tp1547
a(F1728.535888671875
F286.18923950195312
tp1548
a(F1836.663818359375
F239.79454040527344
tp1549
a(F1615.8775634765625
F216.41015625
tp1550
a(F1729.243896484375
F286.12167358398438
tp1551
a(F1728.773681640625
F286.00579833984375
tp1552
a(F1728.358642578125
F286.09808349609375
tp1553
a(F1723.5010986328125
F283.65481567382812
tp1554
a(F1812.8084716796875
F240.145263671875
tp1555
a(F1728.73291015625
F286.06253051757812
tp1556
a(F1813.1258544921875
F239.91169738769531
tp1557
a(F1728.38623046875
F286.13702392578125
tp1558
a(F1728.3380126953125
F286.17864990234375
tp1559
a(F1836.7010498046875
F239.69931030273438
tp1560
a(F1812.8089599609375
F240.14178466796875
tp1561
a(F1728.6451416015625
F285.99240112304688
tp1562
a(F1728.604248046875
F286.04205322265625
tp1563
a(F1728.65673828125
F286.04150390625
tp1564
a(F1812.652099609375
F240.25363159179688
tp1565
a(F1812.7537841796875
F240.27275085449219
tp1566
a(F1836.5848388671875
F239.70225524902344
tp1567
a(F1728.56982421875
F286.09716796875
tp1568
a(F1728.5054931640625
F286.0706787109375
tp1569
a(F1728.85302734375
F286.109130859375
tp1570
a(F1836.5323486328125
F239.72372436523438
tp1571
a(F1728.15673828125
F286.2352294921875
tp1572
a(F1836.699462890625
F239.70355224609375
tp1573
a(F1728.3802490234375
F286.03533935546875
tp1574
a(F1813.0089111328125
F239.99848937988281
tp1575
a(F1813.7679443359375
F240.01899719238281
tp1576
a(F1729.3809814453125
F286.04193115234375
tp1577
a(F1837.0732421875
F239.79682922363281
tp1578
a(F1858.354248046875
F302.82546997070312
tp1579
a(F1753.214599609375
F225.01472473144531
tp1580
a(F1607.3753662109375
F220.60774230957031
tp1581
a(F1728.3988037109375
F286.08917236328125
tp1582
a(F1813.1727294921875
F240.15072631835938
tp1583
a(F1813.6943359375
F240.0638427734375
tp1584
a(F1728.724853515625
F286.07565307617188
tp1585
a(F1812.91259765625
F239.91993713378906
tp1586
a(F1729.187744140625
F286.06515502929688
tp1587
a(F1813.5545654296875
F240.03689575195312
tp1588
a(F1728.354248046875
F286.12637329101562
tp1589
a(F1812.7064208984375
F240.07952880859375
tp1590
a(F1728.326904296875
F286.13677978515625
tp1591
a(F135.70758056640625
F70.574958801269531
tp1592
a(F1813.059326171875
F240.22677612304688
tp1593
a(F1836.858642578125
F239.78507995605469
tp1594
a(F1835.5576171875
F239.82907104492188
tp1595
a(F1728.3590087890625
F286.23532104492188
tp1596
a(F1835.6678466796875
F239.8863525390625
tp1597
a(F1812.004150390625
F240.52639770507812
tp1598
a(F1727.46044921875
F286.51495361328125
tp1599
a(F1812.334228515625
F240.39225769042969
tp1600
a(F1751.84228515625
F225.36386108398438
tp1601
a(F1811.98583984375
F240.58888244628906
tp1602
a(F1811.8594970703125
F240.61247253417969
tp1603
a(F1812.12548828125
F240.45646667480469
tp1604
a(F1812.850341796875
F240.35432434082031
tp1605
a(F1812.02734375
F240.37554931640625
tp1606
a(F1812.5958251953125
F240.30329895019531
tp1607
a(F1835.6220703125
F239.81741333007812
tp1608
a(F1835.748291015625
F239.79808044433594
tp1609
a(F1728.1729736328125
F286.15286254882812
tp1610
a(F1727.9056396484375
F286.32098388671875
tp1611
a(F1728.201416015625
F286.22604370117188
tp1612
a(F1728.136474609375
F286.22802734375
tp1613
a(F1727.97509765625
F286.226318359375
tp1614
a(F1835.939208984375
F239.77674865722656
tp1615
a(F1865.048828125
F298.6898193359375
tp1616
a(F1723.2757568359375
F283.6451416015625
tp1617
a(F1812.5201416015625
F240.2625732421875
tp1618
a(F1744.18310546875
F290.63687133789062
tp1619
a(F1845.0640869140625
F243.51570129394531
tp1620
a(F1791.4703369140625
F292.57925415039062
tp1621
a(F1836.7569580078125
F239.82389831542969
tp1622
a(F1812.80810546875
F240.19815063476562
tp1623
a(F1836.8660888671875
F239.81428527832031
tp1624
a(F1836.5477294921875
F239.79220581054688
tp1625
a(F1812.8358154296875
F240.36697387695312
tp1626
a(F1615.6990966796875
F216.49505615234375
tp1627
a(F1812.6513671875
F240.2535400390625
tp1628
a(F1836.505615234375
F239.85223388671875
tp1629
a(F1812.6531982421875
F240.16580200195312
tp1630
a(F1812.8447265625
F240.25357055664062
tp1631
a(F1686.4654541015625
F276.25210571289062
tp1632
a(F1812.69677734375
F240.22102355957031
tp1633
a(F1686.3555908203125
F276.24929809570312
tp1634
a(F1836.6448974609375
F239.801025390625
tp1635
a(F1836.6829833984375
F239.80429077148438
tp1636
a(F1812.6373291015625
F240.19732666015625
tp1637
a(F1836.5755615234375
F239.84425354003906
tp1638
a(F1812.6116943359375
F240.23483276367188
tp1639
a(F1836.5216064453125
F239.80032348632812
tp1640
a(F1812.918701171875
F240.50540161132812
tp1641
a(F1812.81298828125
F240.34315490722656
tp1642
a(F1812.7296142578125
F240.23785400390625
tp1643
a(F1836.5198974609375
F239.85679626464844
tp1644
a(F1812.8067626953125
F240.50224304199219
tp1645
a(F1812.8453369140625
F240.508544921875
tp1646
a(F1812.8275146484375
F240.34892272949219
tp1647
a(F1615.76171875
F216.46726989746094
tp1648
a(F1812.7515869140625
F240.22566223144531
tp1649
a(F1812.7498779296875
F240.1788330078125
tp1650
a(F1812.765380859375
F240.34861755371094
tp1651
a(F1812.621337890625
F240.17291259765625
tp1652
a(F1812.8922119140625
F240.2872314453125
tp1653
a(F1836.573974609375
F239.82095336914062
tp1654
a(F1836.5860595703125
F239.8331298828125
tp1655
a(F1836.660400390625
F239.91207885742188
tp1656
a(F1812.8780517578125
F240.19354248046875
tp1657
a(F1836.71240234375
F239.79487609863281
tp1658
a(F1812.9644775390625
F240.37394714355469
tp1659
a(F1812.694091796875
F240.240966796875
tp1660
a(F1812.2860107421875
F240.40472412109375
tp1661
a(F1836.535888671875
F239.94023132324219
tp1662
a(F1616.0169677734375
F216.26107788085938
tp1663
a(F1813.1661376953125
F240.1529541015625
tp1664
a(F1813.0472412109375
F240.1795654296875
tp1665
a(F1836.7496337890625
F239.88812255859375
tp1666
a(F1813.035888671875
F240.22721862792969
tp1667
a(F1813.154052734375
F240.07160949707031
tp1668
a(F1813.259765625
F240.13291931152344
tp1669
a(F1836.5074462890625
F239.74848937988281
tp1670
a(F1836.6239013671875
F239.64509582519531
tp1671
a(F1813.0025634765625
F240.22099304199219
tp1672
a(F1812.8974609375
F240.13182067871094
tp1673
a(F1812.9195556640625
F240.16593933105469
tp1674
a(F1836.5159912109375
F239.71809387207031
tp1675
a(F1836.6021728515625
F239.97036743164062
tp1676
a(F1812.81298828125
F240.35824584960938
tp1677
a(F1835.69775390625
F239.88812255859375
tp1678
a(F1835.5
F239.83424377441406
tp1679
a(F1812.484619140625
F240.27989196777344
tp1680
a(F1812.81396484375
F240.30581665039062
tp1681
a(F1835.6859130859375
F239.931640625
tp1682
a(F1615.656982421875
F216.52682495117188
tp1683
a(F1756.1549072265625
F108.14888000488281
tp1684
a(F1812.7247314453125
F240.03459167480469
tp1685
a(F1812.3939208984375
F240.28366088867188
tp1686
a(F1812.6461181640625
F240.20635986328125
tp1687
a(F1812.7745361328125
F240.36717224121094
tp1688
a(F1812.4022216796875
F240.34307861328125
tp1689
a(F1836.6343994140625
F239.97358703613281
tp1690
a(F1800.4031982421875
F295.27825927734375
tp1691
a(F1615.7664794921875
F216.499267578125
tp1692
a(F1615.25
F216.83763122558594
tp1693
a(F1812.25244140625
F240.45982360839844
tp1694
a(F1812.4749755859375
F240.2657470703125
tp1695
a(F1812.34326171875
F240.41290283203125
tp1696
a(F1812.7076416015625
F240.35433959960938
tp1697
a(F1615.6678466796875
F216.47254943847656
tp1698
a(F1812.245361328125
F240.24478149414062
tp1699
a(F1812.8624267578125
F240.21160888671875
tp1700
a(F1835.744140625
F240.05763244628906
tp1701
a(F1812.7672119140625
F240.21653747558594
tp1702
a(F1813.0616455078125
F240.30126953125
tp1703
a(F1812.356689453125
F240.2574462890625
tp1704
a(F1812.922119140625
F240.29542541503906
tp1705
a(F1812.098876953125
F240.62991333007812
tp1706
a(F1800.341552734375
F295.343017578125
tp1707
a(F1812.59423828125
F240.64520263671875
tp1708
a(F1836.137939453125
F239.83323669433594
tp1709
a(F1812.367919921875
F240.33218383789062
tp1710
a(F1812.365478515625
F240.28726196289062
tp1711
a(F1835.7626953125
F239.90763854980469
tp1712
a(F1812.1932373046875
F240.34709167480469
tp1713
a(F1812.1932373046875
F240.34709167480469
tp1714
a(F1812.6123046875
F240.18626403808594
tp1715
a(F1812.5650634765625
F240.13563537597656
tp1716
a(F1812.198974609375
F240.34619140625
tp1717
a(F1836.6337890625
F239.81105041503906
tp1718
a(F1812.9324951171875
F240.39273071289062
tp1719
a(F1812.8055419921875
F240.36421203613281
tp1720
a(F1615.552490234375
F216.45271301269531
tp1721
a(F1812.586181640625
F240.38478088378906
tp1722
a(F1812.1334228515625
F240.61701965332031
tp1723
a(F1812.5782470703125
F240.35403442382812
tp1724
a(F1835.69921875
F239.90379333496094
tp1725
a(F1812.678955078125
F240.22538757324219
tp1726
a(F1812.638671875
F240.51014709472656
tp1727
a(F1835.516357421875
F239.89791870117188
tp1728
a(F1812.1888427734375
F240.38432312011719
tp1729
a(F1812.289794921875
F240.42105102539062
tp1730
a(F1812.594482421875
F240.46636962890625
tp1731
a(F1812.5994873046875
F240.44427490234375
tp1732
a(F1812.166259765625
F240.765625
tp1733
a(F1812.54833984375
F240.56149291992188
tp1734
a(F1812.6650390625
F240.44154357910156
tp1735
a(F1812.139892578125
F240.639404296875
tp1736
a(F1812.8023681640625
F240.59181213378906
tp1737
a(F1812.5054931640625
F240.22772216796875
tp1738
a(F1812.4503173828125
F240.42552185058594
tp1739
a(F1812.6435546875
F240.34931945800781
tp1740
a(F1812.633544921875
F240.44091796875
tp1741
a(F1812.7420654296875
F240.2642822265625
tp1742
a(F1812.7513427734375
F240.1341552734375
tp1743
a(F1812.9246826171875
F240.35281372070312
tp1744
a(F1812.345458984375
F240.373291015625
tp1745
a(F1812.248779296875
F240.3072509765625
tp1746
a(F1812.472412109375
F240.2930908203125
tp1747
a(F1835.57421875
F239.99250793457031
tp1748
a(F1812.12890625
F240.67245483398438
tp1749
a(F1615.1343994140625
F216.85113525390625
tp1750
a(F1836.5009765625
F239.76275634765625
tp1751
a(F1836.1806640625
F239.81709289550781
tp1752
a(F1835.9649658203125
F239.84521484375
tp1753
a(F1812.7357177734375
F240.54100036621094
tp1754
a(F1835.8240966796875
F239.87387084960938
tp1755
a(F1812.6485595703125
F240.33120727539062
tp1756
a(F1812.3094482421875
F240.18577575683594
tp1757
a(F1812.6248779296875
F240.48808288574219
tp1758
a(F1812.6060791015625
F240.40266418457031
tp1759
a(F1812.5616455078125
F240.50668334960938
tp1760
a(F1812.4373779296875
F240.3375244140625
tp1761
a(F1812.3076171875
F240.2828369140625
tp1762
a(F1812.655517578125
F240.42330932617188
tp1763
a(F1812.8204345703125
F240.59886169433594
tp1764
a(F1812.5792236328125
F240.42245483398438
tp1765
a(F1812.76513671875
F240.29145812988281
tp1766
a(F1836.0704345703125
F239.84663391113281
tp1767
a(F1812.623291015625
F240.55697631835938
tp1768
a(F1812.36669921875
F240.26092529296875
tp1769
a(F1812.1607666015625
F240.19523620605469
tp1770
a(F1812.4781494140625
F240.2672119140625
tp1771
a(F1742.9652099609375
F291.40859985351562
tp1772
a(F1743.051513671875
F291.441650390625
tp1773
a(F1812.6798095703125
F240.53501892089844
tp1774
a(F1812.4837646484375
F240.30499267578125
tp1775
a(F1812.7513427734375
F240.56610107421875
tp1776
a(F1812.8238525390625
F240.64176940917969
tp1777
a(F1812.5701904296875
F240.5213623046875
tp1778
a(F1812.6187744140625
F240.43202209472656
tp1779
a(F1812.62158203125
F240.33891296386719
tp1780
a(F1812.63671875
F240.44581604003906
tp1781
a(F1812.8924560546875
F240.32424926757812
tp1782
a(F1812.941162109375
F240.40663146972656
tp1783
a(F1812.605224609375
F240.40629577636719
tp1784
a(F1812.1563720703125
F240.28143310546875
tp1785
a(F1812.8309326171875
F240.37142944335938
tp1786
a(F1812.102294921875
F240.41714477539062
tp1787
a(F1812.7166748046875
F240.32928466796875
tp1788
a(F1742.950927734375
F291.38607788085938
tp1789
a(F1812.63525390625
F240.4425048828125
tp1790
a(F1812.88818359375
F240.25028991699219
tp1791
a(F1812.7486572265625
F240.27955627441406
tp1792
a(F1835.6630859375
F239.84175109863281
tp1793
a(F1903.8499755859375
F597.3975830078125
tp1794
a(F1812.4981689453125
F240.27572631835938
tp1795
a(F1835.8604736328125
F239.76634216308594
tp1796
a(F1812.6180419921875
F240.16450500488281
tp1797
a(F1812.1845703125
F240.2960205078125
tp1798
a(F1812.35302734375
F240.37699890136719
tp1799
a(F1836.5726318359375
F239.89723205566406
tp1800
a(F1835.6063232421875
F239.72499084472656
tp1801
a(F1798.8677978515625
F573.18212890625
tp1802
a(F1812.7978515625
F240.55026245117188
tp1803
a(F1812.558837890625
F240.54045104980469
tp1804
a(F1812.663330078125
F240.47984313964844
tp1805
a(F1835.572509765625
F239.94749450683594
tp1806
a(F1625.8023681640625
F211.11026000976562
tp1807
a(F1664.88427734375
F287.23651123046875
tp1808
a(F1911.0255126953125
F307.88510131835938
tp1809
a(F1792.173095703125
F474.1123046875
tp1810
a(F1812.4635009765625
F240.31585693359375
tp1811
a(F1775.536376953125
F469.87588500976562
tp1812
a(F1740.4468994140625
F468.1673583984375
tp1813
a(F1812.8546142578125
F240.08958435058594
tp1814
a.